
ATM_MCU.elf:     file format elf32-avr

Sections:
Idx Name          Size      VMA       LMA       File off  Algn
  0 .text         000011de  00000000  00000000  00000094  2**1
                  CONTENTS, ALLOC, LOAD, READONLY, CODE
  1 .data         00000072  00800060  000011de  00001272  2**0
                  CONTENTS, ALLOC, LOAD, DATA
  2 .bss          0000002f  008000d2  008000d2  000012e4  2**0
                  ALLOC
  3 .comment      00000030  00000000  00000000  000012e4  2**0
                  CONTENTS, READONLY
  4 .note.gnu.avr.deviceinfo 0000003c  00000000  00000000  00001314  2**2
                  CONTENTS, READONLY
  5 .debug_aranges 000003e0  00000000  00000000  00001350  2**0
                  CONTENTS, READONLY, DEBUGGING
  6 .debug_info   00004761  00000000  00000000  00001730  2**0
                  CONTENTS, READONLY, DEBUGGING
  7 .debug_abbrev 000016c7  00000000  00000000  00005e91  2**0
                  CONTENTS, READONLY, DEBUGGING
  8 .debug_line   000024ad  00000000  00000000  00007558  2**0
                  CONTENTS, READONLY, DEBUGGING
  9 .debug_frame  000009a8  00000000  00000000  00009a08  2**2
                  CONTENTS, READONLY, DEBUGGING
 10 .debug_str    0000164e  00000000  00000000  0000a3b0  2**0
                  CONTENTS, READONLY, DEBUGGING
 11 .debug_loc    000026d8  00000000  00000000  0000b9fe  2**0
                  CONTENTS, READONLY, DEBUGGING
 12 .debug_ranges 000002e8  00000000  00000000  0000e0d6  2**0
                  CONTENTS, READONLY, DEBUGGING

Disassembly of section .text:

00000000 <__vectors>:
       0:	0c 94 2a 00 	jmp	0x54	; 0x54 <__ctors_end>
       4:	0c 94 b7 05 	jmp	0xb6e	; 0xb6e <__vector_1>
       8:	0c 94 e0 05 	jmp	0xbc0	; 0xbc0 <__vector_2>
       c:	0c 94 09 06 	jmp	0xc12	; 0xc12 <__vector_3>
      10:	0c 94 47 00 	jmp	0x8e	; 0x8e <__bad_interrupt>
      14:	0c 94 5d 07 	jmp	0xeba	; 0xeba <__vector_5>
      18:	0c 94 47 00 	jmp	0x8e	; 0x8e <__bad_interrupt>
      1c:	0c 94 47 00 	jmp	0x8e	; 0x8e <__bad_interrupt>
      20:	0c 94 47 00 	jmp	0x8e	; 0x8e <__bad_interrupt>
      24:	0c 94 47 00 	jmp	0x8e	; 0x8e <__bad_interrupt>
      28:	0c 94 47 00 	jmp	0x8e	; 0x8e <__bad_interrupt>
      2c:	0c 94 ce 06 	jmp	0xd9c	; 0xd9c <__vector_11>
      30:	0c 94 32 06 	jmp	0xc64	; 0xc64 <__vector_12>
      34:	0c 94 47 00 	jmp	0x8e	; 0x8e <__bad_interrupt>
      38:	0c 94 47 00 	jmp	0x8e	; 0x8e <__bad_interrupt>
      3c:	0c 94 47 00 	jmp	0x8e	; 0x8e <__bad_interrupt>
      40:	0c 94 47 00 	jmp	0x8e	; 0x8e <__bad_interrupt>
      44:	0c 94 47 00 	jmp	0x8e	; 0x8e <__bad_interrupt>
      48:	0c 94 47 00 	jmp	0x8e	; 0x8e <__bad_interrupt>
      4c:	0c 94 47 00 	jmp	0x8e	; 0x8e <__bad_interrupt>
      50:	0c 94 47 00 	jmp	0x8e	; 0x8e <__bad_interrupt>

00000054 <__ctors_end>:
      54:	11 24       	eor	r1, r1
      56:	1f be       	out	0x3f, r1	; 63
      58:	cf e5       	ldi	r28, 0x5F	; 95
      5a:	d8 e0       	ldi	r29, 0x08	; 8
      5c:	de bf       	out	0x3e, r29	; 62
      5e:	cd bf       	out	0x3d, r28	; 61

00000060 <__do_copy_data>:
      60:	10 e0       	ldi	r17, 0x00	; 0
      62:	a0 e6       	ldi	r26, 0x60	; 96
      64:	b0 e0       	ldi	r27, 0x00	; 0
      66:	ee ed       	ldi	r30, 0xDE	; 222
      68:	f1 e1       	ldi	r31, 0x11	; 17
      6a:	02 c0       	rjmp	.+4      	; 0x70 <__do_copy_data+0x10>
      6c:	05 90       	lpm	r0, Z+
      6e:	0d 92       	st	X+, r0
      70:	a2 3d       	cpi	r26, 0xD2	; 210
      72:	b1 07       	cpc	r27, r17
      74:	d9 f7       	brne	.-10     	; 0x6c <__do_copy_data+0xc>

00000076 <__do_clear_bss>:
      76:	21 e0       	ldi	r18, 0x01	; 1
      78:	a2 ed       	ldi	r26, 0xD2	; 210
      7a:	b0 e0       	ldi	r27, 0x00	; 0
      7c:	01 c0       	rjmp	.+2      	; 0x80 <.do_clear_bss_start>

0000007e <.do_clear_bss_loop>:
      7e:	1d 92       	st	X+, r1

00000080 <.do_clear_bss_start>:
      80:	a1 30       	cpi	r26, 0x01	; 1
      82:	b2 07       	cpc	r27, r18
      84:	e1 f7       	brne	.-8      	; 0x7e <.do_clear_bss_loop>
      86:	0e 94 68 04 	call	0x8d0	; 0x8d0 <main>
      8a:	0c 94 ed 08 	jmp	0x11da	; 0x11da <_exit>

0000008e <__bad_interrupt>:
      8e:	0c 94 00 00 	jmp	0	; 0x0 <__vectors>

00000092 <TriggerCallBack>:
************************************************************************************************************/


void TriggerCallBack(void)
{
	TriggerState = TRIGGER;
      92:	10 92 60 00 	sts	0x0060, r1	; 0x800060 <TriggerState>
      96:	08 95       	ret

00000098 <timer_ovfCount>:
 * RETURN			: void
 */

void timer_ovfCount(void)
{
	global_u8OVFCounter++;
      98:	80 91 d3 00 	lds	r24, 0x00D3	; 0x8000d3 <global_u8OVFCounter>
      9c:	8f 5f       	subi	r24, 0xFF	; 255
      9e:	80 93 d3 00 	sts	0x00D3, r24	; 0x8000d3 <global_u8OVFCounter>
      a2:	08 95       	ret

000000a4 <APP_Init>:

}
void APP_Init(void)
{
	
	(void)HButton_Init(DIO_PINB_2);
      a4:	8a e0       	ldi	r24, 0x0A	; 10
      a6:	0e 94 df 00 	call	0x1be	; 0x1be <HButton_Init>
	(void)KEYPAD_init();
      aa:	0e 94 bc 01 	call	0x378	; 0x378 <KEYPAD_init>
	(void)HTimer_enInit();
      ae:	0e 94 93 01 	call	0x326	; 0x326 <HTimer_enInit>
	(void)HTimer_enCBF(timer_ovfCount);
      b2:	8c e4       	ldi	r24, 0x4C	; 76
      b4:	90 e0       	ldi	r25, 0x00	; 0
      b6:	0e 94 9d 01 	call	0x33a	; 0x33a <HTimer_enCBF>
	(void)HLCD_vidInit();
      ba:	0e 94 76 03 	call	0x6ec	; 0x6ec <HLCD_vidInit>
	//(void)HSPI_MasterInit();
	(void)H_EXTINT_create(EXTINT0, ANY_LOGICAL_CHANGE,TriggerCallBack);
      be:	49 e4       	ldi	r20, 0x49	; 73
      c0:	50 e0       	ldi	r21, 0x00	; 0
      c2:	63 e0       	ldi	r22, 0x03	; 3
      c4:	80 e0       	ldi	r24, 0x00	; 0
      c6:	0e 94 a5 01 	call	0x34a	; 0x34a <H_EXTINT_create>
      ca:	08 95       	ret

000000cc <APP_Start>:


void APP_Start(void)
{
			
	switch(TriggerState)
      cc:	80 91 60 00 	lds	r24, 0x0060	; 0x800060 <TriggerState>
      d0:	88 23       	and	r24, r24
      d2:	19 f0       	breq	.+6      	; 0xda <APP_Start+0xe>
      d4:	81 30       	cpi	r24, 0x01	; 1
      d6:	41 f0       	breq	.+16     	; 0xe8 <APP_Start+0x1c>
      d8:	08 95       	ret
	{
		case TRIGGER:
		{
			Get_pin(ATMpin);
      da:	84 ed       	ldi	r24, 0xD4	; 212
      dc:	90 e0       	ldi	r25, 0x00	; 0
      de:	0e 94 9a 00 	call	0x134	; 0x134 <Get_pin>
			welcomeFlag = 0;
      e2:	10 92 d2 00 	sts	0x00D2, r1	; 0x8000d2 <__data_end>
			break;
      e6:	08 95       	ret
		}
		case N_TRIGGER:
		{
			if(welcomeFlag == 0)
      e8:	80 91 d2 00 	lds	r24, 0x00D2	; 0x8000d2 <__data_end>
      ec:	81 11       	cpse	r24, r1
      ee:	05 c0       	rjmp	.+10     	; 0xfa <APP_Start+0x2e>
			{
				Welcome();
      f0:	0e 94 7e 00 	call	0xfc	; 0xfc <Welcome>
				welcomeFlag = 1;
      f4:	81 e0       	ldi	r24, 0x01	; 1
      f6:	80 93 d2 00 	sts	0x00D2, r24	; 0x8000d2 <__data_end>
      fa:	08 95       	ret

000000fc <Welcome>:
Uchar8_t Entered_amount [] = "0000.00";


void Welcome(void)
{
	HLCD_ClrDisplay();
      fc:	0e 94 29 04 	call	0x852	; 0x852 <HLCD_ClrDisplay>
	HLCD_gotoXY(0,0);
     100:	60 e0       	ldi	r22, 0x00	; 0
     102:	80 e0       	ldi	r24, 0x00	; 0
     104:	0e 94 3c 04 	call	0x878	; 0x878 <HLCD_gotoXY>
	HLCD_WriteString((Uchar8_t *)"Welcome To Atm");
     108:	86 e8       	ldi	r24, 0x86	; 134
     10a:	90 e0       	ldi	r25, 0x00	; 0
     10c:	0e 94 50 04 	call	0x8a0	; 0x8a0 <HLCD_WriteString>
	HTIM0_SyncDelay(1,Seconds);
     110:	42 e0       	ldi	r20, 0x02	; 2
     112:	61 e0       	ldi	r22, 0x01	; 1
     114:	70 e0       	ldi	r23, 0x00	; 0
     116:	80 e0       	ldi	r24, 0x00	; 0
     118:	90 e0       	ldi	r25, 0x00	; 0
     11a:	0e 94 ed 00 	call	0x1da	; 0x1da <HTIM0_SyncDelay>
	HLCD_ClrDisplay();
     11e:	0e 94 29 04 	call	0x852	; 0x852 <HLCD_ClrDisplay>
	HLCD_gotoXY(0,0);
     122:	60 e0       	ldi	r22, 0x00	; 0
     124:	80 e0       	ldi	r24, 0x00	; 0
     126:	0e 94 3c 04 	call	0x878	; 0x878 <HLCD_gotoXY>
	HLCD_WriteString((Uchar8_t *)"Insert Your Card");
     12a:	85 e9       	ldi	r24, 0x95	; 149
     12c:	90 e0       	ldi	r25, 0x00	; 0
     12e:	0e 94 50 04 	call	0x8a0	; 0x8a0 <HLCD_WriteString>
     132:	08 95       	ret

00000134 <Get_pin>:
}


EN_PinState Get_pin(Uchar8_t *enteredpin)
{
     134:	ef 92       	push	r14
     136:	ff 92       	push	r15
     138:	0f 93       	push	r16
     13a:	1f 93       	push	r17
     13c:	cf 93       	push	r28
     13e:	df 93       	push	r29
     140:	7c 01       	movw	r14, r24
	Uchar8_t colPos=0;
    HLCD_ClrDisplay();
     142:	0e 94 29 04 	call	0x852	; 0x852 <HLCD_ClrDisplay>
	HLCD_gotoXY(0,0);
     146:	60 e0       	ldi	r22, 0x00	; 0
     148:	80 e0       	ldi	r24, 0x00	; 0
     14a:	0e 94 3c 04 	call	0x878	; 0x878 <HLCD_gotoXY>
	HLCD_WriteString("Enter Your pin");
     14e:	86 ea       	ldi	r24, 0xA6	; 166
     150:	90 e0       	ldi	r25, 0x00	; 0
     152:	0e 94 50 04 	call	0x8a0	; 0x8a0 <HLCD_WriteString>
	Uchar8_t BTN,loc_counter=0;
     156:	d0 e0       	ldi	r29, 0x00	; 0
}


EN_PinState Get_pin(Uchar8_t *enteredpin)
{
	Uchar8_t colPos=0;
     158:	10 e0       	ldi	r17, 0x00	; 0
    HLCD_ClrDisplay();
	HLCD_gotoXY(0,0);
	HLCD_WriteString("Enter Your pin");
	Uchar8_t BTN,loc_counter=0;
	
	while (loc_counter < 4)
     15a:	19 c0       	rjmp	.+50     	; 0x18e <Get_pin+0x5a>
	{
		//myState = Button_enStatus();
		BTN = KEYPAD_GetButton();
     15c:	0e 94 07 03 	call	0x60e	; 0x60e <KEYPAD_GetButton>
     160:	c8 2f       	mov	r28, r24
		if(BTN == KEY_NOTHING)continue;
     162:	88 23       	and	r24, r24
     164:	a1 f0       	breq	.+40     	; 0x18e <Get_pin+0x5a>
		else if(BTN)
     166:	99 f0       	breq	.+38     	; 0x18e <Get_pin+0x5a>
		{
			HLCD_gotoXY(1,colPos++);
     168:	01 e0       	ldi	r16, 0x01	; 1
     16a:	01 0f       	add	r16, r17
     16c:	61 2f       	mov	r22, r17
     16e:	81 e0       	ldi	r24, 0x01	; 1
     170:	0e 94 3c 04 	call	0x878	; 0x878 <HLCD_gotoXY>
			enteredpin[loc_counter] = keys_arr[BTN-1];
     174:	d7 01       	movw	r26, r14
     176:	ad 0f       	add	r26, r29
     178:	b1 1d       	adc	r27, r1
     17a:	ec 2f       	mov	r30, r28
     17c:	f0 e0       	ldi	r31, 0x00	; 0
     17e:	e0 5a       	subi	r30, 0xA0	; 160
     180:	ff 4f       	sbci	r31, 0xFF	; 255
     182:	80 81       	ld	r24, Z
     184:	8c 93       	st	X, r24
			HLCD_vidWriteChar(enteredpin[loc_counter]);
     186:	0e 94 c5 03 	call	0x78a	; 0x78a <HLCD_vidWriteChar>
			loc_counter++;
     18a:	df 5f       	subi	r29, 0xFF	; 255
		//myState = Button_enStatus();
		BTN = KEYPAD_GetButton();
		if(BTN == KEY_NOTHING)continue;
		else if(BTN)
		{
			HLCD_gotoXY(1,colPos++);
     18c:	10 2f       	mov	r17, r16
    HLCD_ClrDisplay();
	HLCD_gotoXY(0,0);
	HLCD_WriteString("Enter Your pin");
	Uchar8_t BTN,loc_counter=0;
	
	while (loc_counter < 4)
     18e:	d4 30       	cpi	r29, 0x04	; 4
     190:	28 f3       	brcs	.-54     	; 0x15c <Get_pin+0x28>
			loc_counter++;
		}
		
		
	}
	if(loc_counter<4)
     192:	d4 30       	cpi	r29, 0x04	; 4
     194:	60 f4       	brcc	.+24     	; 0x1ae <Get_pin+0x7a>
	{
		HLCD_ClrDisplay();
     196:	0e 94 29 04 	call	0x852	; 0x852 <HLCD_ClrDisplay>
		HLCD_gotoXY(1,0);
     19a:	60 e0       	ldi	r22, 0x00	; 0
     19c:	81 e0       	ldi	r24, 0x01	; 1
     19e:	0e 94 3c 04 	call	0x878	; 0x878 <HLCD_gotoXY>
		HLCD_WriteString("ERROR");
     1a2:	85 eb       	ldi	r24, 0xB5	; 181
     1a4:	90 e0       	ldi	r25, 0x00	; 0
     1a6:	0e 94 50 04 	call	0x8a0	; 0x8a0 <HLCD_WriteString>
		return PIN_NOT_OK;
     1aa:	84 e0       	ldi	r24, 0x04	; 4
     1ac:	01 c0       	rjmp	.+2      	; 0x1b0 <Get_pin+0x7c>
	}
	else {
		return PIN_OK;
     1ae:	83 e0       	ldi	r24, 0x03	; 3
	    }
}
     1b0:	df 91       	pop	r29
     1b2:	cf 91       	pop	r28
     1b4:	1f 91       	pop	r17
     1b6:	0f 91       	pop	r16
     1b8:	ff 90       	pop	r15
     1ba:	ef 90       	pop	r14
     1bc:	08 95       	ret

000001be <HButton_Init>:
     1be:	cf 93       	push	r28
     1c0:	80 32       	cpi	r24, 0x20	; 32
     1c2:	40 f4       	brcc	.+16     	; 0x1d4 <HButton_Init+0x16>
     1c4:	c8 2f       	mov	r28, r24
     1c6:	60 e0       	ldi	r22, 0x00	; 0
     1c8:	0e 94 6d 04 	call	0x8da	; 0x8da <DIO_s8SETPinDir>
     1cc:	61 e0       	ldi	r22, 0x01	; 1
     1ce:	8c 2f       	mov	r24, r28
     1d0:	0e 94 ad 04 	call	0x95a	; 0x95a <DIO_s8SETPinVal>
     1d4:	81 e0       	ldi	r24, 0x01	; 1
     1d6:	cf 91       	pop	r28
     1d8:	08 95       	ret

000001da <HTIM0_SyncDelay>:
     1da:	8f 92       	push	r8
     1dc:	9f 92       	push	r9
     1de:	af 92       	push	r10
     1e0:	bf 92       	push	r11
     1e2:	cf 92       	push	r12
     1e4:	df 92       	push	r13
     1e6:	ef 92       	push	r14
     1e8:	ff 92       	push	r15
     1ea:	0f 93       	push	r16
     1ec:	1f 93       	push	r17
     1ee:	cf 93       	push	r28
     1f0:	df 93       	push	r29
     1f2:	00 d0       	rcall	.+0      	; 0x1f4 <HTIM0_SyncDelay+0x1a>
     1f4:	cd b7       	in	r28, 0x3d	; 61
     1f6:	de b7       	in	r29, 0x3e	; 62
     1f8:	6b 01       	movw	r12, r22
     1fa:	7c 01       	movw	r14, r24
     1fc:	42 30       	cpi	r20, 0x02	; 2
     1fe:	59 f4       	brne	.+22     	; 0x216 <HTIM0_SyncDelay+0x3c>
     200:	9b 01       	movw	r18, r22
     202:	ac 01       	movw	r20, r24
     204:	60 e4       	ldi	r22, 0x40	; 64
     206:	72 e4       	ldi	r23, 0x42	; 66
     208:	8f e0       	ldi	r24, 0x0F	; 15
     20a:	90 e0       	ldi	r25, 0x00	; 0
     20c:	0e 94 c3 08 	call	0x1186	; 0x1186 <__mulsi3>
     210:	6b 01       	movw	r12, r22
     212:	7c 01       	movw	r14, r24
     214:	0d c0       	rjmp	.+26     	; 0x230 <HTIM0_SyncDelay+0x56>
     216:	41 30       	cpi	r20, 0x01	; 1
     218:	49 f4       	brne	.+18     	; 0x22c <HTIM0_SyncDelay+0x52>
     21a:	a8 ee       	ldi	r26, 0xE8	; 232
     21c:	b3 e0       	ldi	r27, 0x03	; 3
     21e:	9b 01       	movw	r18, r22
     220:	ac 01       	movw	r20, r24
     222:	0e 94 d3 08 	call	0x11a6	; 0x11a6 <__muluhisi3>
     226:	6b 01       	movw	r12, r22
     228:	7c 01       	movw	r14, r24
     22a:	02 c0       	rjmp	.+4      	; 0x230 <HTIM0_SyncDelay+0x56>
     22c:	41 11       	cpse	r20, r1
     22e:	6b c0       	rjmp	.+214    	; 0x306 <HTIM0_SyncDelay+0x12c>
     230:	88 e8       	ldi	r24, 0x88	; 136
     232:	c8 16       	cp	r12, r24
     234:	83 e1       	ldi	r24, 0x13	; 19
     236:	d8 06       	cpc	r13, r24
     238:	e1 04       	cpc	r14, r1
     23a:	f1 04       	cpc	r15, r1
     23c:	c8 f0       	brcs	.+50     	; 0x270 <HTIM0_SyncDelay+0x96>
     23e:	88 ea       	ldi	r24, 0xA8	; 168
     240:	c8 16       	cp	r12, r24
     242:	81 e6       	ldi	r24, 0x61	; 97
     244:	d8 06       	cpc	r13, r24
     246:	e1 04       	cpc	r14, r1
     248:	f1 04       	cpc	r15, r1
     24a:	a0 f0       	brcs	.+40     	; 0x274 <HTIM0_SyncDelay+0x9a>
     24c:	88 e4       	ldi	r24, 0x48	; 72
     24e:	c8 16       	cp	r12, r24
     250:	88 ee       	ldi	r24, 0xE8	; 232
     252:	d8 06       	cpc	r13, r24
     254:	81 e0       	ldi	r24, 0x01	; 1
     256:	e8 06       	cpc	r14, r24
     258:	f1 04       	cpc	r15, r1
     25a:	70 f0       	brcs	.+28     	; 0x278 <HTIM0_SyncDelay+0x9e>
     25c:	80 e2       	ldi	r24, 0x20	; 32
     25e:	c8 16       	cp	r12, r24
     260:	81 ea       	ldi	r24, 0xA1	; 161
     262:	d8 06       	cpc	r13, r24
     264:	87 e0       	ldi	r24, 0x07	; 7
     266:	e8 06       	cpc	r14, r24
     268:	f1 04       	cpc	r15, r1
     26a:	40 f4       	brcc	.+16     	; 0x27c <HTIM0_SyncDelay+0xa2>
     26c:	14 e0       	ldi	r17, 0x04	; 4
     26e:	07 c0       	rjmp	.+14     	; 0x27e <HTIM0_SyncDelay+0xa4>
     270:	11 e0       	ldi	r17, 0x01	; 1
     272:	05 c0       	rjmp	.+10     	; 0x27e <HTIM0_SyncDelay+0xa4>
     274:	12 e0       	ldi	r17, 0x02	; 2
     276:	03 c0       	rjmp	.+6      	; 0x27e <HTIM0_SyncDelay+0xa4>
     278:	13 e0       	ldi	r17, 0x03	; 3
     27a:	01 c0       	rjmp	.+2      	; 0x27e <HTIM0_SyncDelay+0xa4>
     27c:	15 e0       	ldi	r17, 0x05	; 5
     27e:	e1 2f       	mov	r30, r17
     280:	f0 e0       	ldi	r31, 0x00	; 0
     282:	31 97       	sbiw	r30, 0x01	; 1
     284:	ee 0f       	add	r30, r30
     286:	ff 1f       	adc	r31, r31
     288:	e8 53       	subi	r30, 0x38	; 56
     28a:	ff 4f       	sbci	r31, 0xFF	; 255
     28c:	60 81       	ld	r22, Z
     28e:	71 81       	ldd	r23, Z+1	; 0x01
     290:	76 95       	lsr	r23
     292:	67 95       	ror	r22
     294:	76 95       	lsr	r23
     296:	67 95       	ror	r22
     298:	76 95       	lsr	r23
     29a:	67 95       	ror	r22
     29c:	80 e0       	ldi	r24, 0x00	; 0
     29e:	90 e0       	ldi	r25, 0x00	; 0
     2a0:	0e 94 35 08 	call	0x106a	; 0x106a <__floatunsisf>
     2a4:	4b 01       	movw	r8, r22
     2a6:	5c 01       	movw	r10, r24
     2a8:	c7 01       	movw	r24, r14
     2aa:	b6 01       	movw	r22, r12
     2ac:	0e 94 35 08 	call	0x106a	; 0x106a <__floatunsisf>
     2b0:	a5 01       	movw	r20, r10
     2b2:	94 01       	movw	r18, r8
     2b4:	0e 94 94 07 	call	0xf28	; 0xf28 <__divsf3>
     2b8:	0e 94 06 08 	call	0x100c	; 0x100c <__fixunssfsi>
     2bc:	f6 2e       	mov	r15, r22
     2be:	07 2f       	mov	r16, r23
     2c0:	80 e0       	ldi	r24, 0x00	; 0
     2c2:	0e 94 7d 06 	call	0xcfa	; 0xcfa <TIM0_voidInit>
     2c6:	8f 2d       	mov	r24, r15
     2c8:	81 95       	neg	r24
     2ca:	0e 94 ae 06 	call	0xd5c	; 0xd5c <TIM0_SetValue>
     2ce:	81 2f       	mov	r24, r17
     2d0:	0e 94 96 06 	call	0xd2c	; 0xd2c <TIM0_Start>
     2d4:	10 e0       	ldi	r17, 0x00	; 0
     2d6:	11 c0       	rjmp	.+34     	; 0x2fa <HTIM0_SyncDelay+0x120>
     2d8:	ce 01       	movw	r24, r28
     2da:	01 96       	adiw	r24, 0x01	; 1
     2dc:	0e 94 b0 06 	call	0xd60	; 0xd60 <TIM0_GetOVF>
     2e0:	ce 01       	movw	r24, r28
     2e2:	02 96       	adiw	r24, 0x02	; 2
     2e4:	0e 94 be 06 	call	0xd7c	; 0xd7c <TIM0_GetState>
     2e8:	89 81       	ldd	r24, Y+1	; 0x01
     2ea:	81 11       	cpse	r24, r1
     2ec:	03 c0       	rjmp	.+6      	; 0x2f4 <HTIM0_SyncDelay+0x11a>
     2ee:	8a 81       	ldd	r24, Y+2	; 0x02
     2f0:	81 11       	cpse	r24, r1
     2f2:	f2 cf       	rjmp	.-28     	; 0x2d8 <HTIM0_SyncDelay+0xfe>
     2f4:	0e 94 ba 06 	call	0xd74	; 0xd74 <TIM0_ClearOVF>
     2f8:	1f 5f       	subi	r17, 0xFF	; 255
     2fa:	01 17       	cp	r16, r17
     2fc:	68 f7       	brcc	.-38     	; 0x2d8 <HTIM0_SyncDelay+0xfe>
     2fe:	0e 94 a4 06 	call	0xd48	; 0xd48 <TIM0_Stop>
     302:	80 e0       	ldi	r24, 0x00	; 0
     304:	01 c0       	rjmp	.+2      	; 0x308 <HTIM0_SyncDelay+0x12e>
     306:	81 e0       	ldi	r24, 0x01	; 1
     308:	0f 90       	pop	r0
     30a:	0f 90       	pop	r0
     30c:	df 91       	pop	r29
     30e:	cf 91       	pop	r28
     310:	1f 91       	pop	r17
     312:	0f 91       	pop	r16
     314:	ff 90       	pop	r15
     316:	ef 90       	pop	r14
     318:	df 90       	pop	r13
     31a:	cf 90       	pop	r12
     31c:	bf 90       	pop	r11
     31e:	af 90       	pop	r10
     320:	9f 90       	pop	r9
     322:	8f 90       	pop	r8
     324:	08 95       	ret

00000326 <HTimer_enInit>:
     326:	80 e0       	ldi	r24, 0x00	; 0
     328:	0e 94 0c 07 	call	0xe18	; 0xe18 <enuTimer2_init>
     32c:	84 e0       	ldi	r24, 0x04	; 4
     32e:	0e 94 3a 07 	call	0xe74	; 0xe74 <u8Timer2_setPrescallar>
     332:	0e 94 4e 07 	call	0xe9c	; 0xe9c <vidTimer2_OvfIrqEnable>
     336:	80 e0       	ldi	r24, 0x00	; 0
     338:	08 95       	ret

0000033a <HTimer_enCBF>:
     33a:	00 97       	sbiw	r24, 0x00	; 0
     33c:	21 f0       	breq	.+8      	; 0x346 <HTimer_enCBF+0xc>
     33e:	0e 94 56 07 	call	0xeac	; 0xeac <vidTimer2_setcbf_OVF>
     342:	80 e0       	ldi	r24, 0x00	; 0
     344:	08 95       	ret
     346:	81 e0       	ldi	r24, 0x01	; 1
     348:	08 95       	ret

0000034a <H_EXTINT_create>:
     34a:	0f 93       	push	r16
     34c:	1f 93       	push	r17
     34e:	cf 93       	push	r28
     350:	c8 2f       	mov	r28, r24
     352:	8a 01       	movw	r16, r20
     354:	0e 94 17 05 	call	0xa2e	; 0xa2e <EXTINT_init>
     358:	81 11       	cpse	r24, r1
     35a:	07 c0       	rjmp	.+14     	; 0x36a <H_EXTINT_create+0x20>
     35c:	b8 01       	movw	r22, r16
     35e:	8c 2f       	mov	r24, r28
     360:	0e 94 9e 05 	call	0xb3c	; 0xb3c <EXTINT_CallBack>
     364:	81 11       	cpse	r24, r1
     366:	03 c0       	rjmp	.+6      	; 0x36e <H_EXTINT_create+0x24>
     368:	03 c0       	rjmp	.+6      	; 0x370 <H_EXTINT_create+0x26>
     36a:	81 e0       	ldi	r24, 0x01	; 1
     36c:	01 c0       	rjmp	.+2      	; 0x370 <H_EXTINT_create+0x26>
     36e:	81 e0       	ldi	r24, 0x01	; 1
     370:	cf 91       	pop	r28
     372:	1f 91       	pop	r17
     374:	0f 91       	pop	r16
     376:	08 95       	ret

00000378 <KEYPAD_init>:
     378:	61 e0       	ldi	r22, 0x01	; 1
     37a:	82 e1       	ldi	r24, 0x12	; 18
     37c:	0e 94 6d 04 	call	0x8da	; 0x8da <DIO_s8SETPinDir>
     380:	61 e0       	ldi	r22, 0x01	; 1
     382:	83 e1       	ldi	r24, 0x13	; 19
     384:	0e 94 6d 04 	call	0x8da	; 0x8da <DIO_s8SETPinDir>
     388:	61 e0       	ldi	r22, 0x01	; 1
     38a:	84 e1       	ldi	r24, 0x14	; 20
     38c:	0e 94 6d 04 	call	0x8da	; 0x8da <DIO_s8SETPinDir>
     390:	60 e0       	ldi	r22, 0x00	; 0
     392:	85 e1       	ldi	r24, 0x15	; 21
     394:	0e 94 6d 04 	call	0x8da	; 0x8da <DIO_s8SETPinDir>
     398:	60 e0       	ldi	r22, 0x00	; 0
     39a:	86 e1       	ldi	r24, 0x16	; 22
     39c:	0e 94 6d 04 	call	0x8da	; 0x8da <DIO_s8SETPinDir>
     3a0:	60 e0       	ldi	r22, 0x00	; 0
     3a2:	87 e1       	ldi	r24, 0x17	; 23
     3a4:	0e 94 6d 04 	call	0x8da	; 0x8da <DIO_s8SETPinDir>
     3a8:	08 95       	ret

000003aa <checkR1>:
     3aa:	cf 93       	push	r28
     3ac:	df 93       	push	r29
     3ae:	1f 92       	push	r1
     3b0:	cd b7       	in	r28, 0x3d	; 61
     3b2:	de b7       	in	r29, 0x3e	; 62
     3b4:	61 e0       	ldi	r22, 0x01	; 1
     3b6:	85 e1       	ldi	r24, 0x15	; 21
     3b8:	0e 94 ad 04 	call	0x95a	; 0x95a <DIO_s8SETPinVal>
     3bc:	61 e0       	ldi	r22, 0x01	; 1
     3be:	86 e1       	ldi	r24, 0x16	; 22
     3c0:	0e 94 ad 04 	call	0x95a	; 0x95a <DIO_s8SETPinVal>
     3c4:	61 e0       	ldi	r22, 0x01	; 1
     3c6:	87 e1       	ldi	r24, 0x17	; 23
     3c8:	0e 94 ad 04 	call	0x95a	; 0x95a <DIO_s8SETPinVal>
     3cc:	61 e0       	ldi	r22, 0x01	; 1
     3ce:	83 e1       	ldi	r24, 0x13	; 19
     3d0:	0e 94 ad 04 	call	0x95a	; 0x95a <DIO_s8SETPinVal>
     3d4:	61 e0       	ldi	r22, 0x01	; 1
     3d6:	84 e1       	ldi	r24, 0x14	; 20
     3d8:	0e 94 ad 04 	call	0x95a	; 0x95a <DIO_s8SETPinVal>
     3dc:	60 e0       	ldi	r22, 0x00	; 0
     3de:	82 e1       	ldi	r24, 0x12	; 18
     3e0:	0e 94 ad 04 	call	0x95a	; 0x95a <DIO_s8SETPinVal>
     3e4:	81 e0       	ldi	r24, 0x01	; 1
     3e6:	89 83       	std	Y+1, r24	; 0x01
     3e8:	be 01       	movw	r22, r28
     3ea:	6f 5f       	subi	r22, 0xFF	; 255
     3ec:	7f 4f       	sbci	r23, 0xFF	; 255
     3ee:	85 e1       	ldi	r24, 0x15	; 21
     3f0:	0e 94 ed 04 	call	0x9da	; 0x9da <DIO_s8GETPinVal>
     3f4:	89 81       	ldd	r24, Y+1	; 0x01
     3f6:	88 23       	and	r24, r24
     3f8:	39 f0       	breq	.+14     	; 0x408 <__EEPROM_REGION_LENGTH__+0x8>
     3fa:	0b c0       	rjmp	.+22     	; 0x412 <__EEPROM_REGION_LENGTH__+0x12>
     3fc:	be 01       	movw	r22, r28
     3fe:	6f 5f       	subi	r22, 0xFF	; 255
     400:	7f 4f       	sbci	r23, 0xFF	; 255
     402:	85 e1       	ldi	r24, 0x15	; 21
     404:	0e 94 ed 04 	call	0x9da	; 0x9da <DIO_s8GETPinVal>
     408:	89 81       	ldd	r24, Y+1	; 0x01
     40a:	88 23       	and	r24, r24
     40c:	b9 f3       	breq	.-18     	; 0x3fc <checkR1+0x52>
     40e:	81 e0       	ldi	r24, 0x01	; 1
     410:	2e c0       	rjmp	.+92     	; 0x46e <__EEPROM_REGION_LENGTH__+0x6e>
     412:	81 e0       	ldi	r24, 0x01	; 1
     414:	89 83       	std	Y+1, r24	; 0x01
     416:	be 01       	movw	r22, r28
     418:	6f 5f       	subi	r22, 0xFF	; 255
     41a:	7f 4f       	sbci	r23, 0xFF	; 255
     41c:	86 e1       	ldi	r24, 0x16	; 22
     41e:	0e 94 ed 04 	call	0x9da	; 0x9da <DIO_s8GETPinVal>
     422:	89 81       	ldd	r24, Y+1	; 0x01
     424:	88 23       	and	r24, r24
     426:	39 f0       	breq	.+14     	; 0x436 <__EEPROM_REGION_LENGTH__+0x36>
     428:	0b c0       	rjmp	.+22     	; 0x440 <__EEPROM_REGION_LENGTH__+0x40>
     42a:	be 01       	movw	r22, r28
     42c:	6f 5f       	subi	r22, 0xFF	; 255
     42e:	7f 4f       	sbci	r23, 0xFF	; 255
     430:	86 e1       	ldi	r24, 0x16	; 22
     432:	0e 94 ed 04 	call	0x9da	; 0x9da <DIO_s8GETPinVal>
     436:	89 81       	ldd	r24, Y+1	; 0x01
     438:	88 23       	and	r24, r24
     43a:	b9 f3       	breq	.-18     	; 0x42a <__EEPROM_REGION_LENGTH__+0x2a>
     43c:	82 e0       	ldi	r24, 0x02	; 2
     43e:	17 c0       	rjmp	.+46     	; 0x46e <__EEPROM_REGION_LENGTH__+0x6e>
     440:	81 e0       	ldi	r24, 0x01	; 1
     442:	89 83       	std	Y+1, r24	; 0x01
     444:	be 01       	movw	r22, r28
     446:	6f 5f       	subi	r22, 0xFF	; 255
     448:	7f 4f       	sbci	r23, 0xFF	; 255
     44a:	87 e1       	ldi	r24, 0x17	; 23
     44c:	0e 94 ed 04 	call	0x9da	; 0x9da <DIO_s8GETPinVal>
     450:	89 81       	ldd	r24, Y+1	; 0x01
     452:	88 23       	and	r24, r24
     454:	41 f0       	breq	.+16     	; 0x466 <__EEPROM_REGION_LENGTH__+0x66>
     456:	80 e0       	ldi	r24, 0x00	; 0
     458:	0a c0       	rjmp	.+20     	; 0x46e <__EEPROM_REGION_LENGTH__+0x6e>
     45a:	be 01       	movw	r22, r28
     45c:	6f 5f       	subi	r22, 0xFF	; 255
     45e:	7f 4f       	sbci	r23, 0xFF	; 255
     460:	87 e1       	ldi	r24, 0x17	; 23
     462:	0e 94 ed 04 	call	0x9da	; 0x9da <DIO_s8GETPinVal>
     466:	89 81       	ldd	r24, Y+1	; 0x01
     468:	88 23       	and	r24, r24
     46a:	b9 f3       	breq	.-18     	; 0x45a <__EEPROM_REGION_LENGTH__+0x5a>
     46c:	83 e0       	ldi	r24, 0x03	; 3
     46e:	0f 90       	pop	r0
     470:	df 91       	pop	r29
     472:	cf 91       	pop	r28
     474:	08 95       	ret

00000476 <checkR2>:
     476:	cf 93       	push	r28
     478:	df 93       	push	r29
     47a:	1f 92       	push	r1
     47c:	cd b7       	in	r28, 0x3d	; 61
     47e:	de b7       	in	r29, 0x3e	; 62
     480:	61 e0       	ldi	r22, 0x01	; 1
     482:	85 e1       	ldi	r24, 0x15	; 21
     484:	0e 94 ad 04 	call	0x95a	; 0x95a <DIO_s8SETPinVal>
     488:	61 e0       	ldi	r22, 0x01	; 1
     48a:	86 e1       	ldi	r24, 0x16	; 22
     48c:	0e 94 ad 04 	call	0x95a	; 0x95a <DIO_s8SETPinVal>
     490:	61 e0       	ldi	r22, 0x01	; 1
     492:	87 e1       	ldi	r24, 0x17	; 23
     494:	0e 94 ad 04 	call	0x95a	; 0x95a <DIO_s8SETPinVal>
     498:	61 e0       	ldi	r22, 0x01	; 1
     49a:	82 e1       	ldi	r24, 0x12	; 18
     49c:	0e 94 ad 04 	call	0x95a	; 0x95a <DIO_s8SETPinVal>
     4a0:	61 e0       	ldi	r22, 0x01	; 1
     4a2:	84 e1       	ldi	r24, 0x14	; 20
     4a4:	0e 94 ad 04 	call	0x95a	; 0x95a <DIO_s8SETPinVal>
     4a8:	60 e0       	ldi	r22, 0x00	; 0
     4aa:	83 e1       	ldi	r24, 0x13	; 19
     4ac:	0e 94 ad 04 	call	0x95a	; 0x95a <DIO_s8SETPinVal>
     4b0:	81 e0       	ldi	r24, 0x01	; 1
     4b2:	89 83       	std	Y+1, r24	; 0x01
     4b4:	be 01       	movw	r22, r28
     4b6:	6f 5f       	subi	r22, 0xFF	; 255
     4b8:	7f 4f       	sbci	r23, 0xFF	; 255
     4ba:	85 e1       	ldi	r24, 0x15	; 21
     4bc:	0e 94 ed 04 	call	0x9da	; 0x9da <DIO_s8GETPinVal>
     4c0:	89 81       	ldd	r24, Y+1	; 0x01
     4c2:	88 23       	and	r24, r24
     4c4:	39 f0       	breq	.+14     	; 0x4d4 <checkR2+0x5e>
     4c6:	0b c0       	rjmp	.+22     	; 0x4de <checkR2+0x68>
     4c8:	be 01       	movw	r22, r28
     4ca:	6f 5f       	subi	r22, 0xFF	; 255
     4cc:	7f 4f       	sbci	r23, 0xFF	; 255
     4ce:	85 e1       	ldi	r24, 0x15	; 21
     4d0:	0e 94 ed 04 	call	0x9da	; 0x9da <DIO_s8GETPinVal>
     4d4:	89 81       	ldd	r24, Y+1	; 0x01
     4d6:	88 23       	and	r24, r24
     4d8:	b9 f3       	breq	.-18     	; 0x4c8 <checkR2+0x52>
     4da:	84 e0       	ldi	r24, 0x04	; 4
     4dc:	2e c0       	rjmp	.+92     	; 0x53a <checkR2+0xc4>
     4de:	81 e0       	ldi	r24, 0x01	; 1
     4e0:	89 83       	std	Y+1, r24	; 0x01
     4e2:	be 01       	movw	r22, r28
     4e4:	6f 5f       	subi	r22, 0xFF	; 255
     4e6:	7f 4f       	sbci	r23, 0xFF	; 255
     4e8:	86 e1       	ldi	r24, 0x16	; 22
     4ea:	0e 94 ed 04 	call	0x9da	; 0x9da <DIO_s8GETPinVal>
     4ee:	89 81       	ldd	r24, Y+1	; 0x01
     4f0:	88 23       	and	r24, r24
     4f2:	39 f0       	breq	.+14     	; 0x502 <checkR2+0x8c>
     4f4:	0b c0       	rjmp	.+22     	; 0x50c <checkR2+0x96>
     4f6:	be 01       	movw	r22, r28
     4f8:	6f 5f       	subi	r22, 0xFF	; 255
     4fa:	7f 4f       	sbci	r23, 0xFF	; 255
     4fc:	86 e1       	ldi	r24, 0x16	; 22
     4fe:	0e 94 ed 04 	call	0x9da	; 0x9da <DIO_s8GETPinVal>
     502:	89 81       	ldd	r24, Y+1	; 0x01
     504:	88 23       	and	r24, r24
     506:	b9 f3       	breq	.-18     	; 0x4f6 <checkR2+0x80>
     508:	85 e0       	ldi	r24, 0x05	; 5
     50a:	17 c0       	rjmp	.+46     	; 0x53a <checkR2+0xc4>
     50c:	81 e0       	ldi	r24, 0x01	; 1
     50e:	89 83       	std	Y+1, r24	; 0x01
     510:	be 01       	movw	r22, r28
     512:	6f 5f       	subi	r22, 0xFF	; 255
     514:	7f 4f       	sbci	r23, 0xFF	; 255
     516:	87 e1       	ldi	r24, 0x17	; 23
     518:	0e 94 ed 04 	call	0x9da	; 0x9da <DIO_s8GETPinVal>
     51c:	89 81       	ldd	r24, Y+1	; 0x01
     51e:	88 23       	and	r24, r24
     520:	41 f0       	breq	.+16     	; 0x532 <checkR2+0xbc>
     522:	80 e0       	ldi	r24, 0x00	; 0
     524:	0a c0       	rjmp	.+20     	; 0x53a <checkR2+0xc4>
     526:	be 01       	movw	r22, r28
     528:	6f 5f       	subi	r22, 0xFF	; 255
     52a:	7f 4f       	sbci	r23, 0xFF	; 255
     52c:	87 e1       	ldi	r24, 0x17	; 23
     52e:	0e 94 ed 04 	call	0x9da	; 0x9da <DIO_s8GETPinVal>
     532:	89 81       	ldd	r24, Y+1	; 0x01
     534:	88 23       	and	r24, r24
     536:	b9 f3       	breq	.-18     	; 0x526 <checkR2+0xb0>
     538:	86 e0       	ldi	r24, 0x06	; 6
     53a:	0f 90       	pop	r0
     53c:	df 91       	pop	r29
     53e:	cf 91       	pop	r28
     540:	08 95       	ret

00000542 <checkR3>:
     542:	cf 93       	push	r28
     544:	df 93       	push	r29
     546:	1f 92       	push	r1
     548:	cd b7       	in	r28, 0x3d	; 61
     54a:	de b7       	in	r29, 0x3e	; 62
     54c:	61 e0       	ldi	r22, 0x01	; 1
     54e:	85 e1       	ldi	r24, 0x15	; 21
     550:	0e 94 ad 04 	call	0x95a	; 0x95a <DIO_s8SETPinVal>
     554:	61 e0       	ldi	r22, 0x01	; 1
     556:	86 e1       	ldi	r24, 0x16	; 22
     558:	0e 94 ad 04 	call	0x95a	; 0x95a <DIO_s8SETPinVal>
     55c:	61 e0       	ldi	r22, 0x01	; 1
     55e:	87 e1       	ldi	r24, 0x17	; 23
     560:	0e 94 ad 04 	call	0x95a	; 0x95a <DIO_s8SETPinVal>
     564:	61 e0       	ldi	r22, 0x01	; 1
     566:	82 e1       	ldi	r24, 0x12	; 18
     568:	0e 94 ad 04 	call	0x95a	; 0x95a <DIO_s8SETPinVal>
     56c:	61 e0       	ldi	r22, 0x01	; 1
     56e:	83 e1       	ldi	r24, 0x13	; 19
     570:	0e 94 ad 04 	call	0x95a	; 0x95a <DIO_s8SETPinVal>
     574:	60 e0       	ldi	r22, 0x00	; 0
     576:	84 e1       	ldi	r24, 0x14	; 20
     578:	0e 94 ad 04 	call	0x95a	; 0x95a <DIO_s8SETPinVal>
     57c:	81 e0       	ldi	r24, 0x01	; 1
     57e:	89 83       	std	Y+1, r24	; 0x01
     580:	be 01       	movw	r22, r28
     582:	6f 5f       	subi	r22, 0xFF	; 255
     584:	7f 4f       	sbci	r23, 0xFF	; 255
     586:	85 e1       	ldi	r24, 0x15	; 21
     588:	0e 94 ed 04 	call	0x9da	; 0x9da <DIO_s8GETPinVal>
     58c:	89 81       	ldd	r24, Y+1	; 0x01
     58e:	88 23       	and	r24, r24
     590:	39 f0       	breq	.+14     	; 0x5a0 <checkR3+0x5e>
     592:	0b c0       	rjmp	.+22     	; 0x5aa <checkR3+0x68>
     594:	be 01       	movw	r22, r28
     596:	6f 5f       	subi	r22, 0xFF	; 255
     598:	7f 4f       	sbci	r23, 0xFF	; 255
     59a:	85 e1       	ldi	r24, 0x15	; 21
     59c:	0e 94 ed 04 	call	0x9da	; 0x9da <DIO_s8GETPinVal>
     5a0:	89 81       	ldd	r24, Y+1	; 0x01
     5a2:	88 23       	and	r24, r24
     5a4:	b9 f3       	breq	.-18     	; 0x594 <checkR3+0x52>
     5a6:	87 e0       	ldi	r24, 0x07	; 7
     5a8:	2e c0       	rjmp	.+92     	; 0x606 <checkR3+0xc4>
     5aa:	81 e0       	ldi	r24, 0x01	; 1
     5ac:	89 83       	std	Y+1, r24	; 0x01
     5ae:	be 01       	movw	r22, r28
     5b0:	6f 5f       	subi	r22, 0xFF	; 255
     5b2:	7f 4f       	sbci	r23, 0xFF	; 255
     5b4:	86 e1       	ldi	r24, 0x16	; 22
     5b6:	0e 94 ed 04 	call	0x9da	; 0x9da <DIO_s8GETPinVal>
     5ba:	89 81       	ldd	r24, Y+1	; 0x01
     5bc:	88 23       	and	r24, r24
     5be:	39 f0       	breq	.+14     	; 0x5ce <checkR3+0x8c>
     5c0:	0b c0       	rjmp	.+22     	; 0x5d8 <checkR3+0x96>
     5c2:	be 01       	movw	r22, r28
     5c4:	6f 5f       	subi	r22, 0xFF	; 255
     5c6:	7f 4f       	sbci	r23, 0xFF	; 255
     5c8:	86 e1       	ldi	r24, 0x16	; 22
     5ca:	0e 94 ed 04 	call	0x9da	; 0x9da <DIO_s8GETPinVal>
     5ce:	89 81       	ldd	r24, Y+1	; 0x01
     5d0:	88 23       	and	r24, r24
     5d2:	b9 f3       	breq	.-18     	; 0x5c2 <checkR3+0x80>
     5d4:	88 e0       	ldi	r24, 0x08	; 8
     5d6:	17 c0       	rjmp	.+46     	; 0x606 <checkR3+0xc4>
     5d8:	81 e0       	ldi	r24, 0x01	; 1
     5da:	89 83       	std	Y+1, r24	; 0x01
     5dc:	be 01       	movw	r22, r28
     5de:	6f 5f       	subi	r22, 0xFF	; 255
     5e0:	7f 4f       	sbci	r23, 0xFF	; 255
     5e2:	87 e1       	ldi	r24, 0x17	; 23
     5e4:	0e 94 ed 04 	call	0x9da	; 0x9da <DIO_s8GETPinVal>
     5e8:	89 81       	ldd	r24, Y+1	; 0x01
     5ea:	88 23       	and	r24, r24
     5ec:	41 f0       	breq	.+16     	; 0x5fe <checkR3+0xbc>
     5ee:	80 e0       	ldi	r24, 0x00	; 0
     5f0:	0a c0       	rjmp	.+20     	; 0x606 <checkR3+0xc4>
     5f2:	be 01       	movw	r22, r28
     5f4:	6f 5f       	subi	r22, 0xFF	; 255
     5f6:	7f 4f       	sbci	r23, 0xFF	; 255
     5f8:	87 e1       	ldi	r24, 0x17	; 23
     5fa:	0e 94 ed 04 	call	0x9da	; 0x9da <DIO_s8GETPinVal>
     5fe:	89 81       	ldd	r24, Y+1	; 0x01
     600:	88 23       	and	r24, r24
     602:	b9 f3       	breq	.-18     	; 0x5f2 <checkR3+0xb0>
     604:	89 e0       	ldi	r24, 0x09	; 9
     606:	0f 90       	pop	r0
     608:	df 91       	pop	r29
     60a:	cf 91       	pop	r28
     60c:	08 95       	ret

0000060e <KEYPAD_GetButton>:
     60e:	0e 94 d5 01 	call	0x3aa	; 0x3aa <checkR1>
     612:	81 11       	cpse	r24, r1
     614:	06 c0       	rjmp	.+12     	; 0x622 <KEYPAD_GetButton+0x14>
     616:	0e 94 3b 02 	call	0x476	; 0x476 <checkR2>
     61a:	81 11       	cpse	r24, r1
     61c:	02 c0       	rjmp	.+4      	; 0x622 <KEYPAD_GetButton+0x14>
     61e:	0e 94 a1 02 	call	0x542	; 0x542 <checkR3>
     622:	08 95       	ret

00000624 <HLCD_vidWritecmd>:
	#else
		//round up by default
		__ticks_dc = (uint32_t)(ceil(fabs(__tmp)));
	#endif

	__builtin_avr_delay_cycles(__ticks_dc);
     624:	1f 93       	push	r17
     626:	cf 93       	push	r28
     628:	df 93       	push	r29
     62a:	d8 2f       	mov	r29, r24
     62c:	60 e0       	ldi	r22, 0x00	; 0
     62e:	82 e0       	ldi	r24, 0x02	; 2
     630:	0e 94 ad 04 	call	0x95a	; 0x95a <DIO_s8SETPinVal>
     634:	60 e0       	ldi	r22, 0x00	; 0
     636:	81 e0       	ldi	r24, 0x01	; 1
     638:	0e 94 ad 04 	call	0x95a	; 0x95a <DIO_s8SETPinVal>
     63c:	1d 2f       	mov	r17, r29
     63e:	12 95       	swap	r17
     640:	1f 70       	andi	r17, 0x0F	; 15
     642:	c0 e0       	ldi	r28, 0x00	; 0
     644:	11 c0       	rjmp	.+34     	; 0x668 <HLCD_vidWritecmd+0x44>
     646:	ec 2f       	mov	r30, r28
     648:	f0 e0       	ldi	r31, 0x00	; 0
     64a:	61 2f       	mov	r22, r17
     64c:	70 e0       	ldi	r23, 0x00	; 0
     64e:	0c 2e       	mov	r0, r28
     650:	02 c0       	rjmp	.+4      	; 0x656 <HLCD_vidWritecmd+0x32>
     652:	75 95       	asr	r23
     654:	67 95       	ror	r22
     656:	0a 94       	dec	r0
     658:	e2 f7       	brpl	.-8      	; 0x652 <HLCD_vidWritecmd+0x2e>
     65a:	61 70       	andi	r22, 0x01	; 1
     65c:	e6 59       	subi	r30, 0x96	; 150
     65e:	ff 4f       	sbci	r31, 0xFF	; 255
     660:	80 81       	ld	r24, Z
     662:	0e 94 ad 04 	call	0x95a	; 0x95a <DIO_s8SETPinVal>
     666:	cf 5f       	subi	r28, 0xFF	; 255
     668:	c4 30       	cpi	r28, 0x04	; 4
     66a:	68 f3       	brcs	.-38     	; 0x646 <HLCD_vidWritecmd+0x22>
     66c:	61 e0       	ldi	r22, 0x01	; 1
     66e:	83 e0       	ldi	r24, 0x03	; 3
     670:	0e 94 ad 04 	call	0x95a	; 0x95a <DIO_s8SETPinVal>
     674:	89 ef       	ldi	r24, 0xF9	; 249
     676:	90 e0       	ldi	r25, 0x00	; 0
     678:	01 97       	sbiw	r24, 0x01	; 1
     67a:	f1 f7       	brne	.-4      	; 0x678 <HLCD_vidWritecmd+0x54>
     67c:	00 c0       	rjmp	.+0      	; 0x67e <HLCD_vidWritecmd+0x5a>
     67e:	00 00       	nop
     680:	60 e0       	ldi	r22, 0x00	; 0
     682:	83 e0       	ldi	r24, 0x03	; 3
     684:	0e 94 ad 04 	call	0x95a	; 0x95a <DIO_s8SETPinVal>
     688:	92 e4       	ldi	r25, 0x42	; 66
     68a:	9a 95       	dec	r25
     68c:	f1 f7       	brne	.-4      	; 0x68a <HLCD_vidWritecmd+0x66>
     68e:	00 c0       	rjmp	.+0      	; 0x690 <HLCD_vidWritecmd+0x6c>
     690:	df 70       	andi	r29, 0x0F	; 15
     692:	c0 e0       	ldi	r28, 0x00	; 0
     694:	11 c0       	rjmp	.+34     	; 0x6b8 <HLCD_vidWritecmd+0x94>
     696:	ec 2f       	mov	r30, r28
     698:	f0 e0       	ldi	r31, 0x00	; 0
     69a:	6d 2f       	mov	r22, r29
     69c:	70 e0       	ldi	r23, 0x00	; 0
     69e:	0c 2e       	mov	r0, r28
     6a0:	02 c0       	rjmp	.+4      	; 0x6a6 <HLCD_vidWritecmd+0x82>
     6a2:	75 95       	asr	r23
     6a4:	67 95       	ror	r22
     6a6:	0a 94       	dec	r0
     6a8:	e2 f7       	brpl	.-8      	; 0x6a2 <HLCD_vidWritecmd+0x7e>
     6aa:	61 70       	andi	r22, 0x01	; 1
     6ac:	e6 59       	subi	r30, 0x96	; 150
     6ae:	ff 4f       	sbci	r31, 0xFF	; 255
     6b0:	80 81       	ld	r24, Z
     6b2:	0e 94 ad 04 	call	0x95a	; 0x95a <DIO_s8SETPinVal>
     6b6:	cf 5f       	subi	r28, 0xFF	; 255
     6b8:	c4 30       	cpi	r28, 0x04	; 4
     6ba:	68 f3       	brcs	.-38     	; 0x696 <HLCD_vidWritecmd+0x72>
     6bc:	61 e0       	ldi	r22, 0x01	; 1
     6be:	83 e0       	ldi	r24, 0x03	; 3
     6c0:	0e 94 ad 04 	call	0x95a	; 0x95a <DIO_s8SETPinVal>
     6c4:	89 ef       	ldi	r24, 0xF9	; 249
     6c6:	90 e0       	ldi	r25, 0x00	; 0
     6c8:	01 97       	sbiw	r24, 0x01	; 1
     6ca:	f1 f7       	brne	.-4      	; 0x6c8 <HLCD_vidWritecmd+0xa4>
     6cc:	00 c0       	rjmp	.+0      	; 0x6ce <HLCD_vidWritecmd+0xaa>
     6ce:	00 00       	nop
     6d0:	60 e0       	ldi	r22, 0x00	; 0
     6d2:	83 e0       	ldi	r24, 0x03	; 3
     6d4:	0e 94 ad 04 	call	0x95a	; 0x95a <DIO_s8SETPinVal>
     6d8:	83 ef       	ldi	r24, 0xF3	; 243
     6da:	91 e0       	ldi	r25, 0x01	; 1
     6dc:	01 97       	sbiw	r24, 0x01	; 1
     6de:	f1 f7       	brne	.-4      	; 0x6dc <HLCD_vidWritecmd+0xb8>
     6e0:	00 c0       	rjmp	.+0      	; 0x6e2 <HLCD_vidWritecmd+0xbe>
     6e2:	00 00       	nop
     6e4:	df 91       	pop	r29
     6e6:	cf 91       	pop	r28
     6e8:	1f 91       	pop	r17
     6ea:	08 95       	ret

000006ec <HLCD_vidInit>:
     6ec:	cf 93       	push	r28
     6ee:	c0 e0       	ldi	r28, 0x00	; 0
     6f0:	09 c0       	rjmp	.+18     	; 0x704 <HLCD_vidInit+0x18>
     6f2:	ec 2f       	mov	r30, r28
     6f4:	f0 e0       	ldi	r31, 0x00	; 0
     6f6:	e6 59       	subi	r30, 0x96	; 150
     6f8:	ff 4f       	sbci	r31, 0xFF	; 255
     6fa:	61 e0       	ldi	r22, 0x01	; 1
     6fc:	80 81       	ld	r24, Z
     6fe:	0e 94 6d 04 	call	0x8da	; 0x8da <DIO_s8SETPinDir>
     702:	cf 5f       	subi	r28, 0xFF	; 255
     704:	c4 30       	cpi	r28, 0x04	; 4
     706:	a8 f3       	brcs	.-22     	; 0x6f2 <HLCD_vidInit+0x6>
     708:	61 e0       	ldi	r22, 0x01	; 1
     70a:	81 e0       	ldi	r24, 0x01	; 1
     70c:	0e 94 6d 04 	call	0x8da	; 0x8da <DIO_s8SETPinDir>
     710:	61 e0       	ldi	r22, 0x01	; 1
     712:	82 e0       	ldi	r24, 0x02	; 2
     714:	0e 94 6d 04 	call	0x8da	; 0x8da <DIO_s8SETPinDir>
     718:	61 e0       	ldi	r22, 0x01	; 1
     71a:	83 e0       	ldi	r24, 0x03	; 3
     71c:	0e 94 6d 04 	call	0x8da	; 0x8da <DIO_s8SETPinDir>
     720:	8f e0       	ldi	r24, 0x0F	; 15
     722:	97 e2       	ldi	r25, 0x27	; 39
     724:	01 97       	sbiw	r24, 0x01	; 1
     726:	f1 f7       	brne	.-4      	; 0x724 <HLCD_vidInit+0x38>
     728:	00 c0       	rjmp	.+0      	; 0x72a <HLCD_vidInit+0x3e>
     72a:	00 00       	nop
     72c:	82 e0       	ldi	r24, 0x02	; 2
     72e:	0e 94 12 03 	call	0x624	; 0x624 <HLCD_vidWritecmd>
     732:	89 ef       	ldi	r24, 0xF9	; 249
     734:	90 e0       	ldi	r25, 0x00	; 0
     736:	01 97       	sbiw	r24, 0x01	; 1
     738:	f1 f7       	brne	.-4      	; 0x736 <HLCD_vidInit+0x4a>
     73a:	00 c0       	rjmp	.+0      	; 0x73c <HLCD_vidInit+0x50>
     73c:	00 00       	nop
     73e:	88 e2       	ldi	r24, 0x28	; 40
     740:	0e 94 12 03 	call	0x624	; 0x624 <HLCD_vidWritecmd>
     744:	89 ef       	ldi	r24, 0xF9	; 249
     746:	90 e0       	ldi	r25, 0x00	; 0
     748:	01 97       	sbiw	r24, 0x01	; 1
     74a:	f1 f7       	brne	.-4      	; 0x748 <HLCD_vidInit+0x5c>
     74c:	00 c0       	rjmp	.+0      	; 0x74e <HLCD_vidInit+0x62>
     74e:	00 00       	nop
     750:	81 e0       	ldi	r24, 0x01	; 1
     752:	0e 94 12 03 	call	0x624	; 0x624 <HLCD_vidWritecmd>
     756:	87 ee       	ldi	r24, 0xE7	; 231
     758:	93 e0       	ldi	r25, 0x03	; 3
     75a:	01 97       	sbiw	r24, 0x01	; 1
     75c:	f1 f7       	brne	.-4      	; 0x75a <HLCD_vidInit+0x6e>
     75e:	00 c0       	rjmp	.+0      	; 0x760 <HLCD_vidInit+0x74>
     760:	00 00       	nop
     762:	86 e0       	ldi	r24, 0x06	; 6
     764:	0e 94 12 03 	call	0x624	; 0x624 <HLCD_vidWritecmd>
     768:	89 ef       	ldi	r24, 0xF9	; 249
     76a:	90 e0       	ldi	r25, 0x00	; 0
     76c:	01 97       	sbiw	r24, 0x01	; 1
     76e:	f1 f7       	brne	.-4      	; 0x76c <HLCD_vidInit+0x80>
     770:	00 c0       	rjmp	.+0      	; 0x772 <HLCD_vidInit+0x86>
     772:	00 00       	nop
     774:	8e e0       	ldi	r24, 0x0E	; 14
     776:	0e 94 12 03 	call	0x624	; 0x624 <HLCD_vidWritecmd>
     77a:	89 ef       	ldi	r24, 0xF9	; 249
     77c:	90 e0       	ldi	r25, 0x00	; 0
     77e:	01 97       	sbiw	r24, 0x01	; 1
     780:	f1 f7       	brne	.-4      	; 0x77e <HLCD_vidInit+0x92>
     782:	00 c0       	rjmp	.+0      	; 0x784 <HLCD_vidInit+0x98>
     784:	00 00       	nop
     786:	cf 91       	pop	r28
     788:	08 95       	ret

0000078a <HLCD_vidWriteChar>:
     78a:	1f 93       	push	r17
     78c:	cf 93       	push	r28
     78e:	df 93       	push	r29
     790:	d8 2f       	mov	r29, r24
     792:	60 e0       	ldi	r22, 0x00	; 0
     794:	82 e0       	ldi	r24, 0x02	; 2
     796:	0e 94 ad 04 	call	0x95a	; 0x95a <DIO_s8SETPinVal>
     79a:	61 e0       	ldi	r22, 0x01	; 1
     79c:	81 e0       	ldi	r24, 0x01	; 1
     79e:	0e 94 ad 04 	call	0x95a	; 0x95a <DIO_s8SETPinVal>
     7a2:	1d 2f       	mov	r17, r29
     7a4:	12 95       	swap	r17
     7a6:	1f 70       	andi	r17, 0x0F	; 15
     7a8:	c0 e0       	ldi	r28, 0x00	; 0
     7aa:	11 c0       	rjmp	.+34     	; 0x7ce <HLCD_vidWriteChar+0x44>
     7ac:	ec 2f       	mov	r30, r28
     7ae:	f0 e0       	ldi	r31, 0x00	; 0
     7b0:	61 2f       	mov	r22, r17
     7b2:	70 e0       	ldi	r23, 0x00	; 0
     7b4:	0c 2e       	mov	r0, r28
     7b6:	02 c0       	rjmp	.+4      	; 0x7bc <HLCD_vidWriteChar+0x32>
     7b8:	75 95       	asr	r23
     7ba:	67 95       	ror	r22
     7bc:	0a 94       	dec	r0
     7be:	e2 f7       	brpl	.-8      	; 0x7b8 <HLCD_vidWriteChar+0x2e>
     7c0:	61 70       	andi	r22, 0x01	; 1
     7c2:	e6 59       	subi	r30, 0x96	; 150
     7c4:	ff 4f       	sbci	r31, 0xFF	; 255
     7c6:	80 81       	ld	r24, Z
     7c8:	0e 94 ad 04 	call	0x95a	; 0x95a <DIO_s8SETPinVal>
     7cc:	cf 5f       	subi	r28, 0xFF	; 255
     7ce:	c4 30       	cpi	r28, 0x04	; 4
     7d0:	68 f3       	brcs	.-38     	; 0x7ac <HLCD_vidWriteChar+0x22>
     7d2:	61 e0       	ldi	r22, 0x01	; 1
     7d4:	83 e0       	ldi	r24, 0x03	; 3
     7d6:	0e 94 ad 04 	call	0x95a	; 0x95a <DIO_s8SETPinVal>
     7da:	89 ef       	ldi	r24, 0xF9	; 249
     7dc:	90 e0       	ldi	r25, 0x00	; 0
     7de:	01 97       	sbiw	r24, 0x01	; 1
     7e0:	f1 f7       	brne	.-4      	; 0x7de <HLCD_vidWriteChar+0x54>
     7e2:	00 c0       	rjmp	.+0      	; 0x7e4 <HLCD_vidWriteChar+0x5a>
     7e4:	00 00       	nop
     7e6:	60 e0       	ldi	r22, 0x00	; 0
     7e8:	83 e0       	ldi	r24, 0x03	; 3
     7ea:	0e 94 ad 04 	call	0x95a	; 0x95a <DIO_s8SETPinVal>
     7ee:	92 e4       	ldi	r25, 0x42	; 66
     7f0:	9a 95       	dec	r25
     7f2:	f1 f7       	brne	.-4      	; 0x7f0 <HLCD_vidWriteChar+0x66>
     7f4:	00 c0       	rjmp	.+0      	; 0x7f6 <HLCD_vidWriteChar+0x6c>
     7f6:	df 70       	andi	r29, 0x0F	; 15
     7f8:	c0 e0       	ldi	r28, 0x00	; 0
     7fa:	11 c0       	rjmp	.+34     	; 0x81e <__DATA_REGION_LENGTH__+0x1e>
     7fc:	ec 2f       	mov	r30, r28
     7fe:	f0 e0       	ldi	r31, 0x00	; 0
     800:	6d 2f       	mov	r22, r29
     802:	70 e0       	ldi	r23, 0x00	; 0
     804:	0c 2e       	mov	r0, r28
     806:	02 c0       	rjmp	.+4      	; 0x80c <__DATA_REGION_LENGTH__+0xc>
     808:	75 95       	asr	r23
     80a:	67 95       	ror	r22
     80c:	0a 94       	dec	r0
     80e:	e2 f7       	brpl	.-8      	; 0x808 <__DATA_REGION_LENGTH__+0x8>
     810:	61 70       	andi	r22, 0x01	; 1
     812:	e6 59       	subi	r30, 0x96	; 150
     814:	ff 4f       	sbci	r31, 0xFF	; 255
     816:	80 81       	ld	r24, Z
     818:	0e 94 ad 04 	call	0x95a	; 0x95a <DIO_s8SETPinVal>
     81c:	cf 5f       	subi	r28, 0xFF	; 255
     81e:	c4 30       	cpi	r28, 0x04	; 4
     820:	68 f3       	brcs	.-38     	; 0x7fc <HLCD_vidWriteChar+0x72>
     822:	61 e0       	ldi	r22, 0x01	; 1
     824:	83 e0       	ldi	r24, 0x03	; 3
     826:	0e 94 ad 04 	call	0x95a	; 0x95a <DIO_s8SETPinVal>
     82a:	89 ef       	ldi	r24, 0xF9	; 249
     82c:	90 e0       	ldi	r25, 0x00	; 0
     82e:	01 97       	sbiw	r24, 0x01	; 1
     830:	f1 f7       	brne	.-4      	; 0x82e <__DATA_REGION_LENGTH__+0x2e>
     832:	00 c0       	rjmp	.+0      	; 0x834 <__DATA_REGION_LENGTH__+0x34>
     834:	00 00       	nop
     836:	60 e0       	ldi	r22, 0x00	; 0
     838:	83 e0       	ldi	r24, 0x03	; 3
     83a:	0e 94 ad 04 	call	0x95a	; 0x95a <DIO_s8SETPinVal>
     83e:	83 ef       	ldi	r24, 0xF3	; 243
     840:	91 e0       	ldi	r25, 0x01	; 1
     842:	01 97       	sbiw	r24, 0x01	; 1
     844:	f1 f7       	brne	.-4      	; 0x842 <__DATA_REGION_LENGTH__+0x42>
     846:	00 c0       	rjmp	.+0      	; 0x848 <__DATA_REGION_LENGTH__+0x48>
     848:	00 00       	nop
     84a:	df 91       	pop	r29
     84c:	cf 91       	pop	r28
     84e:	1f 91       	pop	r17
     850:	08 95       	ret

00000852 <HLCD_ClrDisplay>:
     852:	81 e0       	ldi	r24, 0x01	; 1
     854:	0e 94 12 03 	call	0x624	; 0x624 <HLCD_vidWritecmd>
     858:	87 ee       	ldi	r24, 0xE7	; 231
     85a:	93 e0       	ldi	r25, 0x03	; 3
     85c:	01 97       	sbiw	r24, 0x01	; 1
     85e:	f1 f7       	brne	.-4      	; 0x85c <HLCD_ClrDisplay+0xa>
     860:	00 c0       	rjmp	.+0      	; 0x862 <__stack+0x3>
     862:	00 00       	nop
     864:	82 e0       	ldi	r24, 0x02	; 2
     866:	0e 94 12 03 	call	0x624	; 0x624 <HLCD_vidWritecmd>
     86a:	87 ee       	ldi	r24, 0xE7	; 231
     86c:	93 e0       	ldi	r25, 0x03	; 3
     86e:	01 97       	sbiw	r24, 0x01	; 1
     870:	f1 f7       	brne	.-4      	; 0x86e <__stack+0xf>
     872:	00 c0       	rjmp	.+0      	; 0x874 <__stack+0x15>
     874:	00 00       	nop
     876:	08 95       	ret

00000878 <HLCD_gotoXY>:
     878:	81 11       	cpse	r24, r1
     87a:	08 c0       	rjmp	.+16     	; 0x88c <HLCD_gotoXY+0x14>
     87c:	60 31       	cpi	r22, 0x10	; 16
     87e:	30 f4       	brcc	.+12     	; 0x88c <HLCD_gotoXY+0x14>
     880:	86 2f       	mov	r24, r22
     882:	8f 70       	andi	r24, 0x0F	; 15
     884:	80 68       	ori	r24, 0x80	; 128
     886:	0e 94 12 03 	call	0x624	; 0x624 <HLCD_vidWritecmd>
     88a:	08 95       	ret
     88c:	81 30       	cpi	r24, 0x01	; 1
     88e:	39 f4       	brne	.+14     	; 0x89e <HLCD_gotoXY+0x26>
     890:	60 31       	cpi	r22, 0x10	; 16
     892:	28 f4       	brcc	.+10     	; 0x89e <HLCD_gotoXY+0x26>
     894:	86 2f       	mov	r24, r22
     896:	8f 70       	andi	r24, 0x0F	; 15
     898:	80 6c       	ori	r24, 0xC0	; 192
     89a:	0e 94 12 03 	call	0x624	; 0x624 <HLCD_vidWritecmd>
     89e:	08 95       	ret

000008a0 <HLCD_WriteString>:
     8a0:	0f 93       	push	r16
     8a2:	1f 93       	push	r17
     8a4:	cf 93       	push	r28
     8a6:	df 93       	push	r29
     8a8:	8c 01       	movw	r16, r24
     8aa:	fc 01       	movw	r30, r24
     8ac:	80 81       	ld	r24, Z
     8ae:	c0 e0       	ldi	r28, 0x00	; 0
     8b0:	d0 e0       	ldi	r29, 0x00	; 0
     8b2:	07 c0       	rjmp	.+14     	; 0x8c2 <HLCD_WriteString+0x22>
     8b4:	0e 94 c5 03 	call	0x78a	; 0x78a <HLCD_vidWriteChar>
     8b8:	21 96       	adiw	r28, 0x01	; 1
     8ba:	f8 01       	movw	r30, r16
     8bc:	ec 0f       	add	r30, r28
     8be:	fd 1f       	adc	r31, r29
     8c0:	80 81       	ld	r24, Z
     8c2:	81 11       	cpse	r24, r1
     8c4:	f7 cf       	rjmp	.-18     	; 0x8b4 <HLCD_WriteString+0x14>
     8c6:	df 91       	pop	r29
     8c8:	cf 91       	pop	r28
     8ca:	1f 91       	pop	r17
     8cc:	0f 91       	pop	r16
     8ce:	08 95       	ret

000008d0 <main>:
     8d0:	0e 94 52 00 	call	0xa4	; 0xa4 <APP_Init>
     8d4:	0e 94 66 00 	call	0xcc	; 0xcc <APP_Start>
     8d8:	fd cf       	rjmp	.-6      	; 0x8d4 <main+0x4>

000008da <DIO_s8SETPinDir>:
     8da:	80 32       	cpi	r24, 0x20	; 32
     8dc:	c0 f5       	brcc	.+112    	; 0x94e <DIO_s8SETPinDir+0x74>
     8de:	62 30       	cpi	r22, 0x02	; 2
     8e0:	c0 f5       	brcc	.+112    	; 0x952 <DIO_s8SETPinDir+0x78>
     8e2:	e8 2f       	mov	r30, r24
     8e4:	e6 95       	lsr	r30
     8e6:	e6 95       	lsr	r30
     8e8:	e6 95       	lsr	r30
     8ea:	87 70       	andi	r24, 0x07	; 7
     8ec:	61 11       	cpse	r22, r1
     8ee:	17 c0       	rjmp	.+46     	; 0x91e <DIO_s8SETPinDir+0x44>
     8f0:	f0 e0       	ldi	r31, 0x00	; 0
     8f2:	ee 0f       	add	r30, r30
     8f4:	ff 1f       	adc	r31, r31
     8f6:	ea 58       	subi	r30, 0x8A	; 138
     8f8:	ff 4f       	sbci	r31, 0xFF	; 255
     8fa:	01 90       	ld	r0, Z+
     8fc:	f0 81       	ld	r31, Z
     8fe:	e0 2d       	mov	r30, r0
     900:	40 81       	ld	r20, Z
     902:	21 e0       	ldi	r18, 0x01	; 1
     904:	30 e0       	ldi	r19, 0x00	; 0
     906:	b9 01       	movw	r22, r18
     908:	02 c0       	rjmp	.+4      	; 0x90e <DIO_s8SETPinDir+0x34>
     90a:	66 0f       	add	r22, r22
     90c:	77 1f       	adc	r23, r23
     90e:	8a 95       	dec	r24
     910:	e2 f7       	brpl	.-8      	; 0x90a <DIO_s8SETPinDir+0x30>
     912:	cb 01       	movw	r24, r22
     914:	80 95       	com	r24
     916:	84 23       	and	r24, r20
     918:	80 83       	st	Z, r24
     91a:	80 e0       	ldi	r24, 0x00	; 0
     91c:	08 95       	ret
     91e:	61 30       	cpi	r22, 0x01	; 1
     920:	d1 f4       	brne	.+52     	; 0x956 <DIO_s8SETPinDir+0x7c>
     922:	f0 e0       	ldi	r31, 0x00	; 0
     924:	ee 0f       	add	r30, r30
     926:	ff 1f       	adc	r31, r31
     928:	ea 58       	subi	r30, 0x8A	; 138
     92a:	ff 4f       	sbci	r31, 0xFF	; 255
     92c:	01 90       	ld	r0, Z+
     92e:	f0 81       	ld	r31, Z
     930:	e0 2d       	mov	r30, r0
     932:	40 81       	ld	r20, Z
     934:	21 e0       	ldi	r18, 0x01	; 1
     936:	30 e0       	ldi	r19, 0x00	; 0
     938:	b9 01       	movw	r22, r18
     93a:	02 c0       	rjmp	.+4      	; 0x940 <DIO_s8SETPinDir+0x66>
     93c:	66 0f       	add	r22, r22
     93e:	77 1f       	adc	r23, r23
     940:	8a 95       	dec	r24
     942:	e2 f7       	brpl	.-8      	; 0x93c <DIO_s8SETPinDir+0x62>
     944:	cb 01       	movw	r24, r22
     946:	84 2b       	or	r24, r20
     948:	80 83       	st	Z, r24
     94a:	80 e0       	ldi	r24, 0x00	; 0
     94c:	08 95       	ret
     94e:	8f ef       	ldi	r24, 0xFF	; 255
     950:	08 95       	ret
     952:	8f ef       	ldi	r24, 0xFF	; 255
     954:	08 95       	ret
     956:	80 e0       	ldi	r24, 0x00	; 0
     958:	08 95       	ret

0000095a <DIO_s8SETPinVal>:
     95a:	80 32       	cpi	r24, 0x20	; 32
     95c:	c0 f5       	brcc	.+112    	; 0x9ce <DIO_s8SETPinVal+0x74>
     95e:	62 30       	cpi	r22, 0x02	; 2
     960:	c0 f5       	brcc	.+112    	; 0x9d2 <DIO_s8SETPinVal+0x78>
     962:	e8 2f       	mov	r30, r24
     964:	e6 95       	lsr	r30
     966:	e6 95       	lsr	r30
     968:	e6 95       	lsr	r30
     96a:	87 70       	andi	r24, 0x07	; 7
     96c:	61 11       	cpse	r22, r1
     96e:	17 c0       	rjmp	.+46     	; 0x99e <DIO_s8SETPinVal+0x44>
     970:	f0 e0       	ldi	r31, 0x00	; 0
     972:	ee 0f       	add	r30, r30
     974:	ff 1f       	adc	r31, r31
     976:	e2 58       	subi	r30, 0x82	; 130
     978:	ff 4f       	sbci	r31, 0xFF	; 255
     97a:	01 90       	ld	r0, Z+
     97c:	f0 81       	ld	r31, Z
     97e:	e0 2d       	mov	r30, r0
     980:	40 81       	ld	r20, Z
     982:	21 e0       	ldi	r18, 0x01	; 1
     984:	30 e0       	ldi	r19, 0x00	; 0
     986:	b9 01       	movw	r22, r18
     988:	02 c0       	rjmp	.+4      	; 0x98e <DIO_s8SETPinVal+0x34>
     98a:	66 0f       	add	r22, r22
     98c:	77 1f       	adc	r23, r23
     98e:	8a 95       	dec	r24
     990:	e2 f7       	brpl	.-8      	; 0x98a <DIO_s8SETPinVal+0x30>
     992:	cb 01       	movw	r24, r22
     994:	80 95       	com	r24
     996:	84 23       	and	r24, r20
     998:	80 83       	st	Z, r24
     99a:	80 e0       	ldi	r24, 0x00	; 0
     99c:	08 95       	ret
     99e:	61 30       	cpi	r22, 0x01	; 1
     9a0:	d1 f4       	brne	.+52     	; 0x9d6 <DIO_s8SETPinVal+0x7c>
     9a2:	f0 e0       	ldi	r31, 0x00	; 0
     9a4:	ee 0f       	add	r30, r30
     9a6:	ff 1f       	adc	r31, r31
     9a8:	e2 58       	subi	r30, 0x82	; 130
     9aa:	ff 4f       	sbci	r31, 0xFF	; 255
     9ac:	01 90       	ld	r0, Z+
     9ae:	f0 81       	ld	r31, Z
     9b0:	e0 2d       	mov	r30, r0
     9b2:	40 81       	ld	r20, Z
     9b4:	21 e0       	ldi	r18, 0x01	; 1
     9b6:	30 e0       	ldi	r19, 0x00	; 0
     9b8:	b9 01       	movw	r22, r18
     9ba:	02 c0       	rjmp	.+4      	; 0x9c0 <DIO_s8SETPinVal+0x66>
     9bc:	66 0f       	add	r22, r22
     9be:	77 1f       	adc	r23, r23
     9c0:	8a 95       	dec	r24
     9c2:	e2 f7       	brpl	.-8      	; 0x9bc <DIO_s8SETPinVal+0x62>
     9c4:	cb 01       	movw	r24, r22
     9c6:	84 2b       	or	r24, r20
     9c8:	80 83       	st	Z, r24
     9ca:	80 e0       	ldi	r24, 0x00	; 0
     9cc:	08 95       	ret
     9ce:	8f ef       	ldi	r24, 0xFF	; 255
     9d0:	08 95       	ret
     9d2:	8f ef       	ldi	r24, 0xFF	; 255
     9d4:	08 95       	ret
     9d6:	80 e0       	ldi	r24, 0x00	; 0
     9d8:	08 95       	ret

000009da <DIO_s8GETPinVal>:
     9da:	80 32       	cpi	r24, 0x20	; 32
     9dc:	d8 f4       	brcc	.+54     	; 0xa14 <DIO_s8GETPinVal+0x3a>
     9de:	e8 2f       	mov	r30, r24
     9e0:	e6 95       	lsr	r30
     9e2:	e6 95       	lsr	r30
     9e4:	e6 95       	lsr	r30
     9e6:	87 70       	andi	r24, 0x07	; 7
     9e8:	f0 e0       	ldi	r31, 0x00	; 0
     9ea:	ee 0f       	add	r30, r30
     9ec:	ff 1f       	adc	r31, r31
     9ee:	e2 59       	subi	r30, 0x92	; 146
     9f0:	ff 4f       	sbci	r31, 0xFF	; 255
     9f2:	01 90       	ld	r0, Z+
     9f4:	f0 81       	ld	r31, Z
     9f6:	e0 2d       	mov	r30, r0
     9f8:	20 81       	ld	r18, Z
     9fa:	30 e0       	ldi	r19, 0x00	; 0
     9fc:	a9 01       	movw	r20, r18
     9fe:	02 c0       	rjmp	.+4      	; 0xa04 <DIO_s8GETPinVal+0x2a>
     a00:	55 95       	asr	r21
     a02:	47 95       	ror	r20
     a04:	8a 95       	dec	r24
     a06:	e2 f7       	brpl	.-8      	; 0xa00 <DIO_s8GETPinVal+0x26>
     a08:	ca 01       	movw	r24, r20
     a0a:	81 70       	andi	r24, 0x01	; 1
     a0c:	fb 01       	movw	r30, r22
     a0e:	80 83       	st	Z, r24
     a10:	80 e0       	ldi	r24, 0x00	; 0
     a12:	08 95       	ret
     a14:	8f ef       	ldi	r24, 0xFF	; 255
     a16:	08 95       	ret

00000a18 <SET_GLOBAL_INTERRUPT>:
     a18:	81 30       	cpi	r24, 0x01	; 1
     a1a:	19 f4       	brne	.+6      	; 0xa22 <SET_GLOBAL_INTERRUPT+0xa>
     a1c:	78 94       	sei
     a1e:	80 e0       	ldi	r24, 0x00	; 0
     a20:	08 95       	ret
     a22:	81 11       	cpse	r24, r1
     a24:	02 c0       	rjmp	.+4      	; 0xa2a <SET_GLOBAL_INTERRUPT+0x12>
     a26:	f8 94       	cli
     a28:	08 95       	ret
     a2a:	81 e0       	ldi	r24, 0x01	; 1
     a2c:	08 95       	ret

00000a2e <EXTINT_init>:
     a2e:	cf 93       	push	r28
     a30:	df 93       	push	r29
     a32:	c8 2f       	mov	r28, r24
     a34:	d6 2f       	mov	r29, r22
     a36:	81 e0       	ldi	r24, 0x01	; 1
     a38:	0e 94 0c 05 	call	0xa18	; 0xa18 <SET_GLOBAL_INTERRUPT>
     a3c:	c1 30       	cpi	r28, 0x01	; 1
     a3e:	99 f1       	breq	.+102    	; 0xaa6 <EXTINT_init+0x78>
     a40:	20 f0       	brcs	.+8      	; 0xa4a <EXTINT_init+0x1c>
     a42:	c2 30       	cpi	r28, 0x02	; 2
     a44:	09 f4       	brne	.+2      	; 0xa48 <EXTINT_init+0x1a>
     a46:	5d c0       	rjmp	.+186    	; 0xb02 <EXTINT_init+0xd4>
     a48:	72 c0       	rjmp	.+228    	; 0xb2e <EXTINT_init+0x100>
     a4a:	d1 11       	cpse	r29, r1
     a4c:	07 c0       	rjmp	.+14     	; 0xa5c <EXTINT_init+0x2e>
     a4e:	85 b7       	in	r24, 0x35	; 53
     a50:	8e 7f       	andi	r24, 0xFE	; 254
     a52:	85 bf       	out	0x35, r24	; 53
     a54:	85 b7       	in	r24, 0x35	; 53
     a56:	8d 7f       	andi	r24, 0xFD	; 253
     a58:	85 bf       	out	0x35, r24	; 53
     a5a:	20 c0       	rjmp	.+64     	; 0xa9c <EXTINT_init+0x6e>
     a5c:	d1 30       	cpi	r29, 0x01	; 1
     a5e:	39 f4       	brne	.+14     	; 0xa6e <EXTINT_init+0x40>
     a60:	85 b7       	in	r24, 0x35	; 53
     a62:	8e 7f       	andi	r24, 0xFE	; 254
     a64:	85 bf       	out	0x35, r24	; 53
     a66:	85 b7       	in	r24, 0x35	; 53
     a68:	82 60       	ori	r24, 0x02	; 2
     a6a:	85 bf       	out	0x35, r24	; 53
     a6c:	17 c0       	rjmp	.+46     	; 0xa9c <EXTINT_init+0x6e>
     a6e:	d2 30       	cpi	r29, 0x02	; 2
     a70:	39 f4       	brne	.+14     	; 0xa80 <EXTINT_init+0x52>
     a72:	85 b7       	in	r24, 0x35	; 53
     a74:	81 60       	ori	r24, 0x01	; 1
     a76:	85 bf       	out	0x35, r24	; 53
     a78:	85 b7       	in	r24, 0x35	; 53
     a7a:	82 60       	ori	r24, 0x02	; 2
     a7c:	85 bf       	out	0x35, r24	; 53
     a7e:	0e c0       	rjmp	.+28     	; 0xa9c <EXTINT_init+0x6e>
     a80:	d3 30       	cpi	r29, 0x03	; 3
     a82:	39 f4       	brne	.+14     	; 0xa92 <EXTINT_init+0x64>
     a84:	85 b7       	in	r24, 0x35	; 53
     a86:	81 60       	ori	r24, 0x01	; 1
     a88:	85 bf       	out	0x35, r24	; 53
     a8a:	85 b7       	in	r24, 0x35	; 53
     a8c:	8d 7f       	andi	r24, 0xFD	; 253
     a8e:	85 bf       	out	0x35, r24	; 53
     a90:	05 c0       	rjmp	.+10     	; 0xa9c <EXTINT_init+0x6e>
     a92:	80 e0       	ldi	r24, 0x00	; 0
     a94:	0e 94 0c 05 	call	0xa18	; 0xa18 <SET_GLOBAL_INTERRUPT>
     a98:	81 e0       	ldi	r24, 0x01	; 1
     a9a:	4d c0       	rjmp	.+154    	; 0xb36 <EXTINT_init+0x108>
     a9c:	8b b7       	in	r24, 0x3b	; 59
     a9e:	80 64       	ori	r24, 0x40	; 64
     aa0:	8b bf       	out	0x3b, r24	; 59
     aa2:	80 e0       	ldi	r24, 0x00	; 0
     aa4:	48 c0       	rjmp	.+144    	; 0xb36 <EXTINT_init+0x108>
     aa6:	d1 11       	cpse	r29, r1
     aa8:	07 c0       	rjmp	.+14     	; 0xab8 <EXTINT_init+0x8a>
     aaa:	85 b7       	in	r24, 0x35	; 53
     aac:	8b 7f       	andi	r24, 0xFB	; 251
     aae:	85 bf       	out	0x35, r24	; 53
     ab0:	85 b7       	in	r24, 0x35	; 53
     ab2:	87 7f       	andi	r24, 0xF7	; 247
     ab4:	85 bf       	out	0x35, r24	; 53
     ab6:	20 c0       	rjmp	.+64     	; 0xaf8 <EXTINT_init+0xca>
     ab8:	d1 30       	cpi	r29, 0x01	; 1
     aba:	39 f4       	brne	.+14     	; 0xaca <EXTINT_init+0x9c>
     abc:	85 b7       	in	r24, 0x35	; 53
     abe:	8b 7f       	andi	r24, 0xFB	; 251
     ac0:	85 bf       	out	0x35, r24	; 53
     ac2:	85 b7       	in	r24, 0x35	; 53
     ac4:	88 60       	ori	r24, 0x08	; 8
     ac6:	85 bf       	out	0x35, r24	; 53
     ac8:	17 c0       	rjmp	.+46     	; 0xaf8 <EXTINT_init+0xca>
     aca:	d2 30       	cpi	r29, 0x02	; 2
     acc:	39 f4       	brne	.+14     	; 0xadc <EXTINT_init+0xae>
     ace:	85 b7       	in	r24, 0x35	; 53
     ad0:	84 60       	ori	r24, 0x04	; 4
     ad2:	85 bf       	out	0x35, r24	; 53
     ad4:	85 b7       	in	r24, 0x35	; 53
     ad6:	88 60       	ori	r24, 0x08	; 8
     ad8:	85 bf       	out	0x35, r24	; 53
     ada:	0e c0       	rjmp	.+28     	; 0xaf8 <EXTINT_init+0xca>
     adc:	d3 30       	cpi	r29, 0x03	; 3
     ade:	39 f4       	brne	.+14     	; 0xaee <EXTINT_init+0xc0>
     ae0:	85 b7       	in	r24, 0x35	; 53
     ae2:	84 60       	ori	r24, 0x04	; 4
     ae4:	85 bf       	out	0x35, r24	; 53
     ae6:	85 b7       	in	r24, 0x35	; 53
     ae8:	87 7f       	andi	r24, 0xF7	; 247
     aea:	85 bf       	out	0x35, r24	; 53
     aec:	05 c0       	rjmp	.+10     	; 0xaf8 <EXTINT_init+0xca>
     aee:	80 e0       	ldi	r24, 0x00	; 0
     af0:	0e 94 0c 05 	call	0xa18	; 0xa18 <SET_GLOBAL_INTERRUPT>
     af4:	81 e0       	ldi	r24, 0x01	; 1
     af6:	1f c0       	rjmp	.+62     	; 0xb36 <EXTINT_init+0x108>
     af8:	8b b7       	in	r24, 0x3b	; 59
     afa:	80 68       	ori	r24, 0x80	; 128
     afc:	8b bf       	out	0x3b, r24	; 59
     afe:	80 e0       	ldi	r24, 0x00	; 0
     b00:	1a c0       	rjmp	.+52     	; 0xb36 <EXTINT_init+0x108>
     b02:	d1 30       	cpi	r29, 0x01	; 1
     b04:	21 f4       	brne	.+8      	; 0xb0e <EXTINT_init+0xe0>
     b06:	84 b7       	in	r24, 0x34	; 52
     b08:	8f 7b       	andi	r24, 0xBF	; 191
     b0a:	84 bf       	out	0x34, r24	; 52
     b0c:	0b c0       	rjmp	.+22     	; 0xb24 <EXTINT_init+0xf6>
     b0e:	d2 30       	cpi	r29, 0x02	; 2
     b10:	21 f4       	brne	.+8      	; 0xb1a <EXTINT_init+0xec>
     b12:	84 b7       	in	r24, 0x34	; 52
     b14:	80 64       	ori	r24, 0x40	; 64
     b16:	84 bf       	out	0x34, r24	; 52
     b18:	05 c0       	rjmp	.+10     	; 0xb24 <EXTINT_init+0xf6>
     b1a:	80 e0       	ldi	r24, 0x00	; 0
     b1c:	0e 94 0c 05 	call	0xa18	; 0xa18 <SET_GLOBAL_INTERRUPT>
     b20:	81 e0       	ldi	r24, 0x01	; 1
     b22:	09 c0       	rjmp	.+18     	; 0xb36 <EXTINT_init+0x108>
     b24:	8b b7       	in	r24, 0x3b	; 59
     b26:	80 62       	ori	r24, 0x20	; 32
     b28:	8b bf       	out	0x3b, r24	; 59
     b2a:	80 e0       	ldi	r24, 0x00	; 0
     b2c:	04 c0       	rjmp	.+8      	; 0xb36 <EXTINT_init+0x108>
     b2e:	80 e0       	ldi	r24, 0x00	; 0
     b30:	0e 94 0c 05 	call	0xa18	; 0xa18 <SET_GLOBAL_INTERRUPT>
     b34:	81 e0       	ldi	r24, 0x01	; 1
     b36:	df 91       	pop	r29
     b38:	cf 91       	pop	r28
     b3a:	08 95       	ret

00000b3c <EXTINT_CallBack>:
     b3c:	81 11       	cpse	r24, r1
     b3e:	05 c0       	rjmp	.+10     	; 0xb4a <EXTINT_CallBack+0xe>
     b40:	70 93 de 00 	sts	0x00DE, r23	; 0x8000de <ptrINT0+0x1>
     b44:	60 93 dd 00 	sts	0x00DD, r22	; 0x8000dd <ptrINT0>
     b48:	08 95       	ret
     b4a:	81 30       	cpi	r24, 0x01	; 1
     b4c:	31 f4       	brne	.+12     	; 0xb5a <EXTINT_CallBack+0x1e>
     b4e:	70 93 dc 00 	sts	0x00DC, r23	; 0x8000dc <ptrINT1+0x1>
     b52:	60 93 db 00 	sts	0x00DB, r22	; 0x8000db <ptrINT1>
     b56:	80 e0       	ldi	r24, 0x00	; 0
     b58:	08 95       	ret
     b5a:	82 30       	cpi	r24, 0x02	; 2
     b5c:	31 f4       	brne	.+12     	; 0xb6a <EXTINT_CallBack+0x2e>
     b5e:	70 93 da 00 	sts	0x00DA, r23	; 0x8000da <ptrINT2+0x1>
     b62:	60 93 d9 00 	sts	0x00D9, r22	; 0x8000d9 <ptrINT2>
     b66:	80 e0       	ldi	r24, 0x00	; 0
     b68:	08 95       	ret
     b6a:	81 e0       	ldi	r24, 0x01	; 1
     b6c:	08 95       	ret

00000b6e <__vector_1>:
     b6e:	1f 92       	push	r1
     b70:	0f 92       	push	r0
     b72:	0f b6       	in	r0, 0x3f	; 63
     b74:	0f 92       	push	r0
     b76:	11 24       	eor	r1, r1
     b78:	2f 93       	push	r18
     b7a:	3f 93       	push	r19
     b7c:	4f 93       	push	r20
     b7e:	5f 93       	push	r21
     b80:	6f 93       	push	r22
     b82:	7f 93       	push	r23
     b84:	8f 93       	push	r24
     b86:	9f 93       	push	r25
     b88:	af 93       	push	r26
     b8a:	bf 93       	push	r27
     b8c:	ef 93       	push	r30
     b8e:	ff 93       	push	r31
     b90:	e0 91 dd 00 	lds	r30, 0x00DD	; 0x8000dd <ptrINT0>
     b94:	f0 91 de 00 	lds	r31, 0x00DE	; 0x8000de <ptrINT0+0x1>
     b98:	30 97       	sbiw	r30, 0x00	; 0
     b9a:	09 f0       	breq	.+2      	; 0xb9e <__vector_1+0x30>
     b9c:	09 95       	icall
     b9e:	ff 91       	pop	r31
     ba0:	ef 91       	pop	r30
     ba2:	bf 91       	pop	r27
     ba4:	af 91       	pop	r26
     ba6:	9f 91       	pop	r25
     ba8:	8f 91       	pop	r24
     baa:	7f 91       	pop	r23
     bac:	6f 91       	pop	r22
     bae:	5f 91       	pop	r21
     bb0:	4f 91       	pop	r20
     bb2:	3f 91       	pop	r19
     bb4:	2f 91       	pop	r18
     bb6:	0f 90       	pop	r0
     bb8:	0f be       	out	0x3f, r0	; 63
     bba:	0f 90       	pop	r0
     bbc:	1f 90       	pop	r1
     bbe:	18 95       	reti

00000bc0 <__vector_2>:
     bc0:	1f 92       	push	r1
     bc2:	0f 92       	push	r0
     bc4:	0f b6       	in	r0, 0x3f	; 63
     bc6:	0f 92       	push	r0
     bc8:	11 24       	eor	r1, r1
     bca:	2f 93       	push	r18
     bcc:	3f 93       	push	r19
     bce:	4f 93       	push	r20
     bd0:	5f 93       	push	r21
     bd2:	6f 93       	push	r22
     bd4:	7f 93       	push	r23
     bd6:	8f 93       	push	r24
     bd8:	9f 93       	push	r25
     bda:	af 93       	push	r26
     bdc:	bf 93       	push	r27
     bde:	ef 93       	push	r30
     be0:	ff 93       	push	r31
     be2:	e0 91 db 00 	lds	r30, 0x00DB	; 0x8000db <ptrINT1>
     be6:	f0 91 dc 00 	lds	r31, 0x00DC	; 0x8000dc <ptrINT1+0x1>
     bea:	30 97       	sbiw	r30, 0x00	; 0
     bec:	09 f0       	breq	.+2      	; 0xbf0 <__vector_2+0x30>
     bee:	09 95       	icall
     bf0:	ff 91       	pop	r31
     bf2:	ef 91       	pop	r30
     bf4:	bf 91       	pop	r27
     bf6:	af 91       	pop	r26
     bf8:	9f 91       	pop	r25
     bfa:	8f 91       	pop	r24
     bfc:	7f 91       	pop	r23
     bfe:	6f 91       	pop	r22
     c00:	5f 91       	pop	r21
     c02:	4f 91       	pop	r20
     c04:	3f 91       	pop	r19
     c06:	2f 91       	pop	r18
     c08:	0f 90       	pop	r0
     c0a:	0f be       	out	0x3f, r0	; 63
     c0c:	0f 90       	pop	r0
     c0e:	1f 90       	pop	r1
     c10:	18 95       	reti

00000c12 <__vector_3>:
     c12:	1f 92       	push	r1
     c14:	0f 92       	push	r0
     c16:	0f b6       	in	r0, 0x3f	; 63
     c18:	0f 92       	push	r0
     c1a:	11 24       	eor	r1, r1
     c1c:	2f 93       	push	r18
     c1e:	3f 93       	push	r19
     c20:	4f 93       	push	r20
     c22:	5f 93       	push	r21
     c24:	6f 93       	push	r22
     c26:	7f 93       	push	r23
     c28:	8f 93       	push	r24
     c2a:	9f 93       	push	r25
     c2c:	af 93       	push	r26
     c2e:	bf 93       	push	r27
     c30:	ef 93       	push	r30
     c32:	ff 93       	push	r31
     c34:	e0 91 d9 00 	lds	r30, 0x00D9	; 0x8000d9 <ptrINT2>
     c38:	f0 91 da 00 	lds	r31, 0x00DA	; 0x8000da <ptrINT2+0x1>
     c3c:	30 97       	sbiw	r30, 0x00	; 0
     c3e:	09 f0       	breq	.+2      	; 0xc42 <__vector_3+0x30>
     c40:	09 95       	icall
     c42:	ff 91       	pop	r31
     c44:	ef 91       	pop	r30
     c46:	bf 91       	pop	r27
     c48:	af 91       	pop	r26
     c4a:	9f 91       	pop	r25
     c4c:	8f 91       	pop	r24
     c4e:	7f 91       	pop	r23
     c50:	6f 91       	pop	r22
     c52:	5f 91       	pop	r21
     c54:	4f 91       	pop	r20
     c56:	3f 91       	pop	r19
     c58:	2f 91       	pop	r18
     c5a:	0f 90       	pop	r0
     c5c:	0f be       	out	0x3f, r0	; 63
     c5e:	0f 90       	pop	r0
     c60:	1f 90       	pop	r1
     c62:	18 95       	reti

00000c64 <__vector_12>:
     c64:	1f 92       	push	r1
     c66:	0f 92       	push	r0
     c68:	0f b6       	in	r0, 0x3f	; 63
     c6a:	0f 92       	push	r0
     c6c:	11 24       	eor	r1, r1
     c6e:	2f 93       	push	r18
     c70:	3f 93       	push	r19
     c72:	8f 93       	push	r24
     c74:	9f 93       	push	r25
     c76:	ef 93       	push	r30
     c78:	ff 93       	push	r31
     c7a:	8f b1       	in	r24, 0x0f	; 15
     c7c:	80 93 fe 00 	sts	0x00FE, r24	; 0x8000fe <u8_g_SlaveReceive>
     c80:	90 91 f0 00 	lds	r25, 0x00F0	; 0x8000f0 <u8_g_SlaveRxIndex>
     c84:	9f 30       	cpi	r25, 0x0F	; 15
     c86:	11 f4       	brne	.+4      	; 0xc8c <__vector_12+0x28>
     c88:	10 92 f0 00 	sts	0x00F0, r1	; 0x8000f0 <u8_g_SlaveRxIndex>
     c8c:	83 32       	cpi	r24, 0x23	; 35
     c8e:	59 f0       	breq	.+22     	; 0xca6 <__vector_12+0x42>
     c90:	90 91 f0 00 	lds	r25, 0x00F0	; 0x8000f0 <u8_g_SlaveRxIndex>
     c94:	e9 2f       	mov	r30, r25
     c96:	f0 e0       	ldi	r31, 0x00	; 0
     c98:	e1 52       	subi	r30, 0x21	; 33
     c9a:	ff 4f       	sbci	r31, 0xFF	; 255
     c9c:	80 83       	st	Z, r24
     c9e:	9f 5f       	subi	r25, 0xFF	; 255
     ca0:	90 93 f0 00 	sts	0x00F0, r25	; 0x8000f0 <u8_g_SlaveRxIndex>
     ca4:	04 c0       	rjmp	.+8      	; 0xcae <__vector_12+0x4a>
     ca6:	80 91 f0 00 	lds	r24, 0x00F0	; 0x8000f0 <u8_g_SlaveRxIndex>
     caa:	80 93 ff 00 	sts	0x00FF, r24	; 0x8000ff <u8_g_SlaveRxLen>
     cae:	80 91 f1 00 	lds	r24, 0x00F1	; 0x8000f1 <u8_g_SlaveTxIndex>
     cb2:	90 91 00 01 	lds	r25, 0x0100	; 0x800100 <u8_g_SlaveTxLen>
     cb6:	89 17       	cp	r24, r25
     cb8:	88 f4       	brcc	.+34     	; 0xcdc <__vector_12+0x78>
     cba:	20 91 ee 00 	lds	r18, 0x00EE	; 0x8000ee <pu8_g_SlaveTxPtr>
     cbe:	30 91 ef 00 	lds	r19, 0x00EF	; 0x8000ef <pu8_g_SlaveTxPtr+0x1>
     cc2:	21 15       	cp	r18, r1
     cc4:	31 05       	cpc	r19, r1
     cc6:	51 f0       	breq	.+20     	; 0xcdc <__vector_12+0x78>
     cc8:	91 e0       	ldi	r25, 0x01	; 1
     cca:	98 0f       	add	r25, r24
     ccc:	90 93 f1 00 	sts	0x00F1, r25	; 0x8000f1 <u8_g_SlaveTxIndex>
     cd0:	f9 01       	movw	r30, r18
     cd2:	e8 0f       	add	r30, r24
     cd4:	f1 1d       	adc	r31, r1
     cd6:	80 81       	ld	r24, Z
     cd8:	8f b9       	out	0x0f, r24	; 15
     cda:	04 c0       	rjmp	.+8      	; 0xce4 <__vector_12+0x80>
     cdc:	89 17       	cp	r24, r25
     cde:	10 f0       	brcs	.+4      	; 0xce4 <__vector_12+0x80>
     ce0:	83 e2       	ldi	r24, 0x23	; 35
     ce2:	8f b9       	out	0x0f, r24	; 15
     ce4:	ff 91       	pop	r31
     ce6:	ef 91       	pop	r30
     ce8:	9f 91       	pop	r25
     cea:	8f 91       	pop	r24
     cec:	3f 91       	pop	r19
     cee:	2f 91       	pop	r18
     cf0:	0f 90       	pop	r0
     cf2:	0f be       	out	0x3f, r0	; 63
     cf4:	0f 90       	pop	r0
     cf6:	1f 90       	pop	r1
     cf8:	18 95       	reti

00000cfa <TIM0_voidInit>:
     cfa:	81 30       	cpi	r24, 0x01	; 1
     cfc:	61 f0       	breq	.+24     	; 0xd16 <TIM0_voidInit+0x1c>
     cfe:	28 f0       	brcs	.+10     	; 0xd0a <TIM0_voidInit+0x10>
     d00:	82 30       	cpi	r24, 0x02	; 2
     d02:	29 f0       	breq	.+10     	; 0xd0e <TIM0_voidInit+0x14>
     d04:	83 30       	cpi	r24, 0x03	; 3
     d06:	29 f0       	breq	.+10     	; 0xd12 <TIM0_voidInit+0x18>
     d08:	0f c0       	rjmp	.+30     	; 0xd28 <TIM0_voidInit+0x2e>
     d0a:	20 e0       	ldi	r18, 0x00	; 0
     d0c:	05 c0       	rjmp	.+10     	; 0xd18 <TIM0_voidInit+0x1e>
     d0e:	28 e0       	ldi	r18, 0x08	; 8
     d10:	03 c0       	rjmp	.+6      	; 0xd18 <TIM0_voidInit+0x1e>
     d12:	28 e4       	ldi	r18, 0x48	; 72
     d14:	01 c0       	rjmp	.+2      	; 0xd18 <TIM0_voidInit+0x1e>
     d16:	20 e4       	ldi	r18, 0x40	; 64
     d18:	93 b7       	in	r25, 0x33	; 51
     d1a:	97 7b       	andi	r25, 0xB7	; 183
     d1c:	93 bf       	out	0x33, r25	; 51
     d1e:	83 b7       	in	r24, 0x33	; 51
     d20:	82 2b       	or	r24, r18
     d22:	83 bf       	out	0x33, r24	; 51
     d24:	80 e0       	ldi	r24, 0x00	; 0
     d26:	08 95       	ret
     d28:	81 e0       	ldi	r24, 0x01	; 1
     d2a:	08 95       	ret

00000d2c <TIM0_Start>:
     d2c:	9f ef       	ldi	r25, 0xFF	; 255
     d2e:	98 0f       	add	r25, r24
     d30:	97 30       	cpi	r25, 0x07	; 7
     d32:	40 f4       	brcc	.+16     	; 0xd44 <TIM0_Start+0x18>
     d34:	93 b7       	in	r25, 0x33	; 51
     d36:	98 7f       	andi	r25, 0xF8	; 248
     d38:	93 bf       	out	0x33, r25	; 51
     d3a:	93 b7       	in	r25, 0x33	; 51
     d3c:	89 2b       	or	r24, r25
     d3e:	83 bf       	out	0x33, r24	; 51
     d40:	80 e0       	ldi	r24, 0x00	; 0
     d42:	08 95       	ret
     d44:	81 e0       	ldi	r24, 0x01	; 1
     d46:	08 95       	ret

00000d48 <TIM0_Stop>:
     d48:	83 b7       	in	r24, 0x33	; 51
     d4a:	88 7f       	andi	r24, 0xF8	; 248
     d4c:	83 bf       	out	0x33, r24	; 51
     d4e:	12 be       	out	0x32, r1	; 50
     d50:	88 b7       	in	r24, 0x38	; 56
     d52:	8e 7f       	andi	r24, 0xFE	; 254
     d54:	88 bf       	out	0x38, r24	; 56
     d56:	10 92 f4 00 	sts	0x00F4, r1	; 0x8000f4 <u8_gs_OVFCount>
     d5a:	08 95       	ret

00000d5c <TIM0_SetValue>:
     d5c:	82 bf       	out	0x32, r24	; 50
     d5e:	08 95       	ret

00000d60 <TIM0_GetOVF>:
     d60:	fc 01       	movw	r30, r24
     d62:	89 2b       	or	r24, r25
     d64:	29 f0       	breq	.+10     	; 0xd70 <TIM0_GetOVF+0x10>
     d66:	98 b7       	in	r25, 0x38	; 56
     d68:	91 70       	andi	r25, 0x01	; 1
     d6a:	90 83       	st	Z, r25
     d6c:	80 e0       	ldi	r24, 0x00	; 0
     d6e:	08 95       	ret
     d70:	81 e0       	ldi	r24, 0x01	; 1
     d72:	08 95       	ret

00000d74 <TIM0_ClearOVF>:
     d74:	88 b7       	in	r24, 0x38	; 56
     d76:	81 60       	ori	r24, 0x01	; 1
     d78:	88 bf       	out	0x38, r24	; 56
     d7a:	08 95       	ret

00000d7c <TIM0_GetState>:
     d7c:	00 97       	sbiw	r24, 0x00	; 0
     d7e:	61 f0       	breq	.+24     	; 0xd98 <TIM0_GetState+0x1c>
     d80:	03 b6       	in	r0, 0x33	; 51
     d82:	00 fe       	sbrs	r0, 0
     d84:	05 c0       	rjmp	.+10     	; 0xd90 <TIM0_GetState+0x14>
     d86:	21 e0       	ldi	r18, 0x01	; 1
     d88:	fc 01       	movw	r30, r24
     d8a:	20 83       	st	Z, r18
     d8c:	80 e0       	ldi	r24, 0x00	; 0
     d8e:	08 95       	ret
     d90:	fc 01       	movw	r30, r24
     d92:	10 82       	st	Z, r1
     d94:	80 e0       	ldi	r24, 0x00	; 0
     d96:	08 95       	ret
     d98:	81 e0       	ldi	r24, 0x01	; 1
     d9a:	08 95       	ret

00000d9c <__vector_11>:
     d9c:	1f 92       	push	r1
     d9e:	0f 92       	push	r0
     da0:	0f b6       	in	r0, 0x3f	; 63
     da2:	0f 92       	push	r0
     da4:	11 24       	eor	r1, r1
     da6:	2f 93       	push	r18
     da8:	3f 93       	push	r19
     daa:	4f 93       	push	r20
     dac:	5f 93       	push	r21
     dae:	6f 93       	push	r22
     db0:	7f 93       	push	r23
     db2:	8f 93       	push	r24
     db4:	9f 93       	push	r25
     db6:	af 93       	push	r26
     db8:	bf 93       	push	r27
     dba:	ef 93       	push	r30
     dbc:	ff 93       	push	r31
     dbe:	80 91 f2 00 	lds	r24, 0x00F2	; 0x8000f2 <TIM0_OVFCallbackFn>
     dc2:	90 91 f3 00 	lds	r25, 0x00F3	; 0x8000f3 <TIM0_OVFCallbackFn+0x1>
     dc6:	89 2b       	or	r24, r25
     dc8:	b1 f0       	breq	.+44     	; 0xdf6 <__vector_11+0x5a>
     dca:	80 91 f4 00 	lds	r24, 0x00F4	; 0x8000f4 <u8_gs_OVFCount>
     dce:	90 91 f5 00 	lds	r25, 0x00F5	; 0x8000f5 <u8_g_TotalOVF>
     dd2:	89 13       	cpse	r24, r25
     dd4:	0d c0       	rjmp	.+26     	; 0xdf0 <__vector_11+0x54>
     dd6:	0e 94 a4 06 	call	0xd48	; 0xd48 <TIM0_Stop>
     dda:	10 92 f4 00 	sts	0x00F4, r1	; 0x8000f4 <u8_gs_OVFCount>
     dde:	89 b7       	in	r24, 0x39	; 57
     de0:	8e 7f       	andi	r24, 0xFE	; 254
     de2:	89 bf       	out	0x39, r24	; 57
     de4:	e0 91 f2 00 	lds	r30, 0x00F2	; 0x8000f2 <TIM0_OVFCallbackFn>
     de8:	f0 91 f3 00 	lds	r31, 0x00F3	; 0x8000f3 <TIM0_OVFCallbackFn+0x1>
     dec:	09 95       	icall
     dee:	03 c0       	rjmp	.+6      	; 0xdf6 <__vector_11+0x5a>
     df0:	8f 5f       	subi	r24, 0xFF	; 255
     df2:	80 93 f4 00 	sts	0x00F4, r24	; 0x8000f4 <u8_gs_OVFCount>
     df6:	ff 91       	pop	r31
     df8:	ef 91       	pop	r30
     dfa:	bf 91       	pop	r27
     dfc:	af 91       	pop	r26
     dfe:	9f 91       	pop	r25
     e00:	8f 91       	pop	r24
     e02:	7f 91       	pop	r23
     e04:	6f 91       	pop	r22
     e06:	5f 91       	pop	r21
     e08:	4f 91       	pop	r20
     e0a:	3f 91       	pop	r19
     e0c:	2f 91       	pop	r18
     e0e:	0f 90       	pop	r0
     e10:	0f be       	out	0x3f, r0	; 63
     e12:	0f 90       	pop	r0
     e14:	1f 90       	pop	r1
     e16:	18 95       	reti

00000e18 <enuTimer2_init>:
			errorStatus = TIMER_NOK;
		}


		return errorStatus;
	}
     e18:	84 30       	cpi	r24, 0x04	; 4
     e1a:	40 f5       	brcc	.+80     	; 0xe6c <enuTimer2_init+0x54>
     e1c:	81 30       	cpi	r24, 0x01	; 1
     e1e:	71 f0       	breq	.+28     	; 0xe3c <enuTimer2_init+0x24>
     e20:	28 f0       	brcs	.+10     	; 0xe2c <enuTimer2_init+0x14>
     e22:	82 30       	cpi	r24, 0x02	; 2
     e24:	99 f0       	breq	.+38     	; 0xe4c <enuTimer2_init+0x34>
     e26:	83 30       	cpi	r24, 0x03	; 3
     e28:	c9 f0       	breq	.+50     	; 0xe5c <enuTimer2_init+0x44>
     e2a:	22 c0       	rjmp	.+68     	; 0xe70 <enuTimer2_init+0x58>
     e2c:	85 b5       	in	r24, 0x25	; 37
     e2e:	87 7f       	andi	r24, 0xF7	; 247
     e30:	85 bd       	out	0x25, r24	; 37
     e32:	85 b5       	in	r24, 0x25	; 37
     e34:	8f 7b       	andi	r24, 0xBF	; 191
     e36:	85 bd       	out	0x25, r24	; 37
     e38:	80 e0       	ldi	r24, 0x00	; 0
     e3a:	08 95       	ret
     e3c:	85 b5       	in	r24, 0x25	; 37
     e3e:	87 7f       	andi	r24, 0xF7	; 247
     e40:	85 bd       	out	0x25, r24	; 37
     e42:	85 b5       	in	r24, 0x25	; 37
     e44:	80 64       	ori	r24, 0x40	; 64
     e46:	85 bd       	out	0x25, r24	; 37
     e48:	80 e0       	ldi	r24, 0x00	; 0
     e4a:	08 95       	ret
     e4c:	85 b5       	in	r24, 0x25	; 37
     e4e:	88 60       	ori	r24, 0x08	; 8
     e50:	85 bd       	out	0x25, r24	; 37
     e52:	85 b5       	in	r24, 0x25	; 37
     e54:	8f 7b       	andi	r24, 0xBF	; 191
     e56:	85 bd       	out	0x25, r24	; 37
     e58:	80 e0       	ldi	r24, 0x00	; 0
     e5a:	08 95       	ret
     e5c:	85 b5       	in	r24, 0x25	; 37
     e5e:	88 60       	ori	r24, 0x08	; 8
     e60:	85 bd       	out	0x25, r24	; 37
     e62:	85 b5       	in	r24, 0x25	; 37
     e64:	80 64       	ori	r24, 0x40	; 64
     e66:	85 bd       	out	0x25, r24	; 37
     e68:	80 e0       	ldi	r24, 0x00	; 0
     e6a:	08 95       	ret
     e6c:	81 e0       	ldi	r24, 0x01	; 1
     e6e:	08 95       	ret
     e70:	81 e0       	ldi	r24, 0x01	; 1
     e72:	08 95       	ret

00000e74 <u8Timer2_setPrescallar>:
     e74:	88 30       	cpi	r24, 0x08	; 8
     e76:	70 f4       	brcc	.+28     	; 0xe94 <u8Timer2_setPrescallar+0x20>
     e78:	80 93 fd 00 	sts	0x00FD, r24	; 0x8000fd <global_prescaller>
     e7c:	90 91 fc 00 	lds	r25, 0x00FC	; 0x8000fc <global_timerStatus>
     e80:	91 30       	cpi	r25, 0x01	; 1
     e82:	51 f4       	brne	.+20     	; 0xe98 <u8Timer2_setPrescallar+0x24>
     e84:	95 b5       	in	r25, 0x25	; 37
     e86:	98 7f       	andi	r25, 0xF8	; 248
     e88:	89 2b       	or	r24, r25
     e8a:	95 b5       	in	r25, 0x25	; 37
     e8c:	89 2b       	or	r24, r25
     e8e:	85 bd       	out	0x25, r24	; 37
     e90:	80 e0       	ldi	r24, 0x00	; 0
     e92:	08 95       	ret
     e94:	81 e0       	ldi	r24, 0x01	; 1
     e96:	08 95       	ret
     e98:	80 e0       	ldi	r24, 0x00	; 0
     e9a:	08 95       	ret

00000e9c <vidTimer2_OvfIrqEnable>:
     e9c:	89 b7       	in	r24, 0x39	; 57
     e9e:	80 64       	ori	r24, 0x40	; 64
     ea0:	89 bf       	out	0x39, r24	; 57
     ea2:	8f b7       	in	r24, 0x3f	; 63
     ea4:	80 68       	ori	r24, 0x80	; 128
     ea6:	8f bf       	out	0x3f, r24	; 63
     ea8:	80 e0       	ldi	r24, 0x00	; 0
     eaa:	08 95       	ret

00000eac <vidTimer2_setcbf_OVF>:

/*************************************************************************************************************/
void vidTimer2_setcbf_OVF(cbf_t cbf)
{
	if (cbf != NULL)
     eac:	00 97       	sbiw	r24, 0x00	; 0
     eae:	21 f0       	breq	.+8      	; 0xeb8 <vidTimer2_setcbf_OVF+0xc>
	{
		globalCallFunc = cbf;
     eb0:	90 93 f8 00 	sts	0x00F8, r25	; 0x8000f8 <globalCallFunc+0x1>
     eb4:	80 93 f7 00 	sts	0x00F7, r24	; 0x8000f7 <globalCallFunc>
     eb8:	08 95       	ret

00000eba <__vector_5>:

/*************************************************************************************************************
 * 							ISR Interrupt Handling
 ************************************************************************************************************/
ISR(TIMER2_OVF_vect)
{
     eba:	1f 92       	push	r1
     ebc:	0f 92       	push	r0
     ebe:	0f b6       	in	r0, 0x3f	; 63
     ec0:	0f 92       	push	r0
     ec2:	11 24       	eor	r1, r1
     ec4:	2f 93       	push	r18
     ec6:	3f 93       	push	r19
     ec8:	4f 93       	push	r20
     eca:	5f 93       	push	r21
     ecc:	6f 93       	push	r22
     ece:	7f 93       	push	r23
     ed0:	8f 93       	push	r24
     ed2:	9f 93       	push	r25
     ed4:	af 93       	push	r26
     ed6:	bf 93       	push	r27
     ed8:	ef 93       	push	r30
     eda:	ff 93       	push	r31
	static Uchar8_t counter = 0;
	counter++;
     edc:	80 91 f6 00 	lds	r24, 0x00F6	; 0x8000f6 <counter.1731>
     ee0:	8f 5f       	subi	r24, 0xFF	; 255
     ee2:	80 93 f6 00 	sts	0x00F6, r24	; 0x8000f6 <counter.1731>
	if(counter == global_ovf)
     ee6:	90 91 fb 00 	lds	r25, 0x00FB	; 0x8000fb <global_ovf>
     eea:	89 13       	cpse	r24, r25
     eec:	0c c0       	rjmp	.+24     	; 0xf06 <__vector_5+0x4c>
	{
		if (globalCallFunc != NULL)
     eee:	e0 91 f7 00 	lds	r30, 0x00F7	; 0x8000f7 <globalCallFunc>
     ef2:	f0 91 f8 00 	lds	r31, 0x00F8	; 0x8000f8 <globalCallFunc+0x1>
     ef6:	30 97       	sbiw	r30, 0x00	; 0
     ef8:	31 f0       	breq	.+12     	; 0xf06 <__vector_5+0x4c>
		{
			counter = 0;
     efa:	10 92 f6 00 	sts	0x00F6, r1	; 0x8000f6 <counter.1731>

			globalCallFunc();
     efe:	09 95       	icall
			TCNT2_REG = preload;
     f00:	80 91 f9 00 	lds	r24, 0x00F9	; 0x8000f9 <preload>
     f04:	84 bd       	out	0x24, r24	; 36
//			global_ovf = 0;
//			vidTimer1_stop();
		}
	}
}
     f06:	ff 91       	pop	r31
     f08:	ef 91       	pop	r30
     f0a:	bf 91       	pop	r27
     f0c:	af 91       	pop	r26
     f0e:	9f 91       	pop	r25
     f10:	8f 91       	pop	r24
     f12:	7f 91       	pop	r23
     f14:	6f 91       	pop	r22
     f16:	5f 91       	pop	r21
     f18:	4f 91       	pop	r20
     f1a:	3f 91       	pop	r19
     f1c:	2f 91       	pop	r18
     f1e:	0f 90       	pop	r0
     f20:	0f be       	out	0x3f, r0	; 63
     f22:	0f 90       	pop	r0
     f24:	1f 90       	pop	r1
     f26:	18 95       	reti

00000f28 <__divsf3>:
     f28:	0e 94 a8 07 	call	0xf50	; 0xf50 <__divsf3x>
     f2c:	0c 94 89 08 	jmp	0x1112	; 0x1112 <__fp_round>
     f30:	0e 94 82 08 	call	0x1104	; 0x1104 <__fp_pscB>
     f34:	58 f0       	brcs	.+22     	; 0xf4c <__divsf3+0x24>
     f36:	0e 94 7b 08 	call	0x10f6	; 0x10f6 <__fp_pscA>
     f3a:	40 f0       	brcs	.+16     	; 0xf4c <__divsf3+0x24>
     f3c:	29 f4       	brne	.+10     	; 0xf48 <__divsf3+0x20>
     f3e:	5f 3f       	cpi	r21, 0xFF	; 255
     f40:	29 f0       	breq	.+10     	; 0xf4c <__divsf3+0x24>
     f42:	0c 94 72 08 	jmp	0x10e4	; 0x10e4 <__fp_inf>
     f46:	51 11       	cpse	r21, r1
     f48:	0c 94 bd 08 	jmp	0x117a	; 0x117a <__fp_szero>
     f4c:	0c 94 78 08 	jmp	0x10f0	; 0x10f0 <__fp_nan>

00000f50 <__divsf3x>:
     f50:	0e 94 9a 08 	call	0x1134	; 0x1134 <__fp_split3>
     f54:	68 f3       	brcs	.-38     	; 0xf30 <__divsf3+0x8>

00000f56 <__divsf3_pse>:
     f56:	99 23       	and	r25, r25
     f58:	b1 f3       	breq	.-20     	; 0xf46 <__divsf3+0x1e>
     f5a:	55 23       	and	r21, r21
     f5c:	91 f3       	breq	.-28     	; 0xf42 <__divsf3+0x1a>
     f5e:	95 1b       	sub	r25, r21
     f60:	55 0b       	sbc	r21, r21
     f62:	bb 27       	eor	r27, r27
     f64:	aa 27       	eor	r26, r26
     f66:	62 17       	cp	r22, r18
     f68:	73 07       	cpc	r23, r19
     f6a:	84 07       	cpc	r24, r20
     f6c:	38 f0       	brcs	.+14     	; 0xf7c <__divsf3_pse+0x26>
     f6e:	9f 5f       	subi	r25, 0xFF	; 255
     f70:	5f 4f       	sbci	r21, 0xFF	; 255
     f72:	22 0f       	add	r18, r18
     f74:	33 1f       	adc	r19, r19
     f76:	44 1f       	adc	r20, r20
     f78:	aa 1f       	adc	r26, r26
     f7a:	a9 f3       	breq	.-22     	; 0xf66 <__divsf3_pse+0x10>
     f7c:	35 d0       	rcall	.+106    	; 0xfe8 <__divsf3_pse+0x92>
     f7e:	0e 2e       	mov	r0, r30
     f80:	3a f0       	brmi	.+14     	; 0xf90 <__divsf3_pse+0x3a>
     f82:	e0 e8       	ldi	r30, 0x80	; 128
     f84:	32 d0       	rcall	.+100    	; 0xfea <__divsf3_pse+0x94>
     f86:	91 50       	subi	r25, 0x01	; 1
     f88:	50 40       	sbci	r21, 0x00	; 0
     f8a:	e6 95       	lsr	r30
     f8c:	00 1c       	adc	r0, r0
     f8e:	ca f7       	brpl	.-14     	; 0xf82 <__divsf3_pse+0x2c>
     f90:	2b d0       	rcall	.+86     	; 0xfe8 <__divsf3_pse+0x92>
     f92:	fe 2f       	mov	r31, r30
     f94:	29 d0       	rcall	.+82     	; 0xfe8 <__divsf3_pse+0x92>
     f96:	66 0f       	add	r22, r22
     f98:	77 1f       	adc	r23, r23
     f9a:	88 1f       	adc	r24, r24
     f9c:	bb 1f       	adc	r27, r27
     f9e:	26 17       	cp	r18, r22
     fa0:	37 07       	cpc	r19, r23
     fa2:	48 07       	cpc	r20, r24
     fa4:	ab 07       	cpc	r26, r27
     fa6:	b0 e8       	ldi	r27, 0x80	; 128
     fa8:	09 f0       	breq	.+2      	; 0xfac <__divsf3_pse+0x56>
     faa:	bb 0b       	sbc	r27, r27
     fac:	80 2d       	mov	r24, r0
     fae:	bf 01       	movw	r22, r30
     fb0:	ff 27       	eor	r31, r31
     fb2:	93 58       	subi	r25, 0x83	; 131
     fb4:	5f 4f       	sbci	r21, 0xFF	; 255
     fb6:	3a f0       	brmi	.+14     	; 0xfc6 <__divsf3_pse+0x70>
     fb8:	9e 3f       	cpi	r25, 0xFE	; 254
     fba:	51 05       	cpc	r21, r1
     fbc:	78 f0       	brcs	.+30     	; 0xfdc <__divsf3_pse+0x86>
     fbe:	0c 94 72 08 	jmp	0x10e4	; 0x10e4 <__fp_inf>
     fc2:	0c 94 bd 08 	jmp	0x117a	; 0x117a <__fp_szero>
     fc6:	5f 3f       	cpi	r21, 0xFF	; 255
     fc8:	e4 f3       	brlt	.-8      	; 0xfc2 <__divsf3_pse+0x6c>
     fca:	98 3e       	cpi	r25, 0xE8	; 232
     fcc:	d4 f3       	brlt	.-12     	; 0xfc2 <__divsf3_pse+0x6c>
     fce:	86 95       	lsr	r24
     fd0:	77 95       	ror	r23
     fd2:	67 95       	ror	r22
     fd4:	b7 95       	ror	r27
     fd6:	f7 95       	ror	r31
     fd8:	9f 5f       	subi	r25, 0xFF	; 255
     fda:	c9 f7       	brne	.-14     	; 0xfce <__divsf3_pse+0x78>
     fdc:	88 0f       	add	r24, r24
     fde:	91 1d       	adc	r25, r1
     fe0:	96 95       	lsr	r25
     fe2:	87 95       	ror	r24
     fe4:	97 f9       	bld	r25, 7
     fe6:	08 95       	ret
     fe8:	e1 e0       	ldi	r30, 0x01	; 1
     fea:	66 0f       	add	r22, r22
     fec:	77 1f       	adc	r23, r23
     fee:	88 1f       	adc	r24, r24
     ff0:	bb 1f       	adc	r27, r27
     ff2:	62 17       	cp	r22, r18
     ff4:	73 07       	cpc	r23, r19
     ff6:	84 07       	cpc	r24, r20
     ff8:	ba 07       	cpc	r27, r26
     ffa:	20 f0       	brcs	.+8      	; 0x1004 <__divsf3_pse+0xae>
     ffc:	62 1b       	sub	r22, r18
     ffe:	73 0b       	sbc	r23, r19
    1000:	84 0b       	sbc	r24, r20
    1002:	ba 0b       	sbc	r27, r26
    1004:	ee 1f       	adc	r30, r30
    1006:	88 f7       	brcc	.-30     	; 0xfea <__divsf3_pse+0x94>
    1008:	e0 95       	com	r30
    100a:	08 95       	ret

0000100c <__fixunssfsi>:
    100c:	0e 94 a2 08 	call	0x1144	; 0x1144 <__fp_splitA>
    1010:	88 f0       	brcs	.+34     	; 0x1034 <__fixunssfsi+0x28>
    1012:	9f 57       	subi	r25, 0x7F	; 127
    1014:	98 f0       	brcs	.+38     	; 0x103c <__fixunssfsi+0x30>
    1016:	b9 2f       	mov	r27, r25
    1018:	99 27       	eor	r25, r25
    101a:	b7 51       	subi	r27, 0x17	; 23
    101c:	b0 f0       	brcs	.+44     	; 0x104a <__fixunssfsi+0x3e>
    101e:	e1 f0       	breq	.+56     	; 0x1058 <__fixunssfsi+0x4c>
    1020:	66 0f       	add	r22, r22
    1022:	77 1f       	adc	r23, r23
    1024:	88 1f       	adc	r24, r24
    1026:	99 1f       	adc	r25, r25
    1028:	1a f0       	brmi	.+6      	; 0x1030 <__fixunssfsi+0x24>
    102a:	ba 95       	dec	r27
    102c:	c9 f7       	brne	.-14     	; 0x1020 <__fixunssfsi+0x14>
    102e:	14 c0       	rjmp	.+40     	; 0x1058 <__fixunssfsi+0x4c>
    1030:	b1 30       	cpi	r27, 0x01	; 1
    1032:	91 f0       	breq	.+36     	; 0x1058 <__fixunssfsi+0x4c>
    1034:	0e 94 bc 08 	call	0x1178	; 0x1178 <__fp_zero>
    1038:	b1 e0       	ldi	r27, 0x01	; 1
    103a:	08 95       	ret
    103c:	0c 94 bc 08 	jmp	0x1178	; 0x1178 <__fp_zero>
    1040:	67 2f       	mov	r22, r23
    1042:	78 2f       	mov	r23, r24
    1044:	88 27       	eor	r24, r24
    1046:	b8 5f       	subi	r27, 0xF8	; 248
    1048:	39 f0       	breq	.+14     	; 0x1058 <__fixunssfsi+0x4c>
    104a:	b9 3f       	cpi	r27, 0xF9	; 249
    104c:	cc f3       	brlt	.-14     	; 0x1040 <__fixunssfsi+0x34>
    104e:	86 95       	lsr	r24
    1050:	77 95       	ror	r23
    1052:	67 95       	ror	r22
    1054:	b3 95       	inc	r27
    1056:	d9 f7       	brne	.-10     	; 0x104e <__fixunssfsi+0x42>
    1058:	3e f4       	brtc	.+14     	; 0x1068 <__fixunssfsi+0x5c>
    105a:	90 95       	com	r25
    105c:	80 95       	com	r24
    105e:	70 95       	com	r23
    1060:	61 95       	neg	r22
    1062:	7f 4f       	sbci	r23, 0xFF	; 255
    1064:	8f 4f       	sbci	r24, 0xFF	; 255
    1066:	9f 4f       	sbci	r25, 0xFF	; 255
    1068:	08 95       	ret

0000106a <__floatunsisf>:
    106a:	e8 94       	clt
    106c:	09 c0       	rjmp	.+18     	; 0x1080 <__floatsisf+0x12>

0000106e <__floatsisf>:
    106e:	97 fb       	bst	r25, 7
    1070:	3e f4       	brtc	.+14     	; 0x1080 <__floatsisf+0x12>
    1072:	90 95       	com	r25
    1074:	80 95       	com	r24
    1076:	70 95       	com	r23
    1078:	61 95       	neg	r22
    107a:	7f 4f       	sbci	r23, 0xFF	; 255
    107c:	8f 4f       	sbci	r24, 0xFF	; 255
    107e:	9f 4f       	sbci	r25, 0xFF	; 255
    1080:	99 23       	and	r25, r25
    1082:	a9 f0       	breq	.+42     	; 0x10ae <__floatsisf+0x40>
    1084:	f9 2f       	mov	r31, r25
    1086:	96 e9       	ldi	r25, 0x96	; 150
    1088:	bb 27       	eor	r27, r27
    108a:	93 95       	inc	r25
    108c:	f6 95       	lsr	r31
    108e:	87 95       	ror	r24
    1090:	77 95       	ror	r23
    1092:	67 95       	ror	r22
    1094:	b7 95       	ror	r27
    1096:	f1 11       	cpse	r31, r1
    1098:	f8 cf       	rjmp	.-16     	; 0x108a <__floatsisf+0x1c>
    109a:	fa f4       	brpl	.+62     	; 0x10da <__floatsisf+0x6c>
    109c:	bb 0f       	add	r27, r27
    109e:	11 f4       	brne	.+4      	; 0x10a4 <__floatsisf+0x36>
    10a0:	60 ff       	sbrs	r22, 0
    10a2:	1b c0       	rjmp	.+54     	; 0x10da <__floatsisf+0x6c>
    10a4:	6f 5f       	subi	r22, 0xFF	; 255
    10a6:	7f 4f       	sbci	r23, 0xFF	; 255
    10a8:	8f 4f       	sbci	r24, 0xFF	; 255
    10aa:	9f 4f       	sbci	r25, 0xFF	; 255
    10ac:	16 c0       	rjmp	.+44     	; 0x10da <__floatsisf+0x6c>
    10ae:	88 23       	and	r24, r24
    10b0:	11 f0       	breq	.+4      	; 0x10b6 <__floatsisf+0x48>
    10b2:	96 e9       	ldi	r25, 0x96	; 150
    10b4:	11 c0       	rjmp	.+34     	; 0x10d8 <__floatsisf+0x6a>
    10b6:	77 23       	and	r23, r23
    10b8:	21 f0       	breq	.+8      	; 0x10c2 <__floatsisf+0x54>
    10ba:	9e e8       	ldi	r25, 0x8E	; 142
    10bc:	87 2f       	mov	r24, r23
    10be:	76 2f       	mov	r23, r22
    10c0:	05 c0       	rjmp	.+10     	; 0x10cc <__floatsisf+0x5e>
    10c2:	66 23       	and	r22, r22
    10c4:	71 f0       	breq	.+28     	; 0x10e2 <__floatsisf+0x74>
    10c6:	96 e8       	ldi	r25, 0x86	; 134
    10c8:	86 2f       	mov	r24, r22
    10ca:	70 e0       	ldi	r23, 0x00	; 0
    10cc:	60 e0       	ldi	r22, 0x00	; 0
    10ce:	2a f0       	brmi	.+10     	; 0x10da <__floatsisf+0x6c>
    10d0:	9a 95       	dec	r25
    10d2:	66 0f       	add	r22, r22
    10d4:	77 1f       	adc	r23, r23
    10d6:	88 1f       	adc	r24, r24
    10d8:	da f7       	brpl	.-10     	; 0x10d0 <__floatsisf+0x62>
    10da:	88 0f       	add	r24, r24
    10dc:	96 95       	lsr	r25
    10de:	87 95       	ror	r24
    10e0:	97 f9       	bld	r25, 7
    10e2:	08 95       	ret

000010e4 <__fp_inf>:
    10e4:	97 f9       	bld	r25, 7
    10e6:	9f 67       	ori	r25, 0x7F	; 127
    10e8:	80 e8       	ldi	r24, 0x80	; 128
    10ea:	70 e0       	ldi	r23, 0x00	; 0
    10ec:	60 e0       	ldi	r22, 0x00	; 0
    10ee:	08 95       	ret

000010f0 <__fp_nan>:
    10f0:	9f ef       	ldi	r25, 0xFF	; 255
    10f2:	80 ec       	ldi	r24, 0xC0	; 192
    10f4:	08 95       	ret

000010f6 <__fp_pscA>:
    10f6:	00 24       	eor	r0, r0
    10f8:	0a 94       	dec	r0
    10fa:	16 16       	cp	r1, r22
    10fc:	17 06       	cpc	r1, r23
    10fe:	18 06       	cpc	r1, r24
    1100:	09 06       	cpc	r0, r25
    1102:	08 95       	ret

00001104 <__fp_pscB>:
    1104:	00 24       	eor	r0, r0
    1106:	0a 94       	dec	r0
    1108:	12 16       	cp	r1, r18
    110a:	13 06       	cpc	r1, r19
    110c:	14 06       	cpc	r1, r20
    110e:	05 06       	cpc	r0, r21
    1110:	08 95       	ret

00001112 <__fp_round>:
    1112:	09 2e       	mov	r0, r25
    1114:	03 94       	inc	r0
    1116:	00 0c       	add	r0, r0
    1118:	11 f4       	brne	.+4      	; 0x111e <__fp_round+0xc>
    111a:	88 23       	and	r24, r24
    111c:	52 f0       	brmi	.+20     	; 0x1132 <__fp_round+0x20>
    111e:	bb 0f       	add	r27, r27
    1120:	40 f4       	brcc	.+16     	; 0x1132 <__fp_round+0x20>
    1122:	bf 2b       	or	r27, r31
    1124:	11 f4       	brne	.+4      	; 0x112a <__fp_round+0x18>
    1126:	60 ff       	sbrs	r22, 0
    1128:	04 c0       	rjmp	.+8      	; 0x1132 <__fp_round+0x20>
    112a:	6f 5f       	subi	r22, 0xFF	; 255
    112c:	7f 4f       	sbci	r23, 0xFF	; 255
    112e:	8f 4f       	sbci	r24, 0xFF	; 255
    1130:	9f 4f       	sbci	r25, 0xFF	; 255
    1132:	08 95       	ret

00001134 <__fp_split3>:
    1134:	57 fd       	sbrc	r21, 7
    1136:	90 58       	subi	r25, 0x80	; 128
    1138:	44 0f       	add	r20, r20
    113a:	55 1f       	adc	r21, r21
    113c:	59 f0       	breq	.+22     	; 0x1154 <__fp_splitA+0x10>
    113e:	5f 3f       	cpi	r21, 0xFF	; 255
    1140:	71 f0       	breq	.+28     	; 0x115e <__fp_splitA+0x1a>
    1142:	47 95       	ror	r20

00001144 <__fp_splitA>:
    1144:	88 0f       	add	r24, r24
    1146:	97 fb       	bst	r25, 7
    1148:	99 1f       	adc	r25, r25
    114a:	61 f0       	breq	.+24     	; 0x1164 <__fp_splitA+0x20>
    114c:	9f 3f       	cpi	r25, 0xFF	; 255
    114e:	79 f0       	breq	.+30     	; 0x116e <__fp_splitA+0x2a>
    1150:	87 95       	ror	r24
    1152:	08 95       	ret
    1154:	12 16       	cp	r1, r18
    1156:	13 06       	cpc	r1, r19
    1158:	14 06       	cpc	r1, r20
    115a:	55 1f       	adc	r21, r21
    115c:	f2 cf       	rjmp	.-28     	; 0x1142 <__fp_split3+0xe>
    115e:	46 95       	lsr	r20
    1160:	f1 df       	rcall	.-30     	; 0x1144 <__fp_splitA>
    1162:	08 c0       	rjmp	.+16     	; 0x1174 <__fp_splitA+0x30>
    1164:	16 16       	cp	r1, r22
    1166:	17 06       	cpc	r1, r23
    1168:	18 06       	cpc	r1, r24
    116a:	99 1f       	adc	r25, r25
    116c:	f1 cf       	rjmp	.-30     	; 0x1150 <__fp_splitA+0xc>
    116e:	86 95       	lsr	r24
    1170:	71 05       	cpc	r23, r1
    1172:	61 05       	cpc	r22, r1
    1174:	08 94       	sec
    1176:	08 95       	ret

00001178 <__fp_zero>:
    1178:	e8 94       	clt

0000117a <__fp_szero>:
    117a:	bb 27       	eor	r27, r27
    117c:	66 27       	eor	r22, r22
    117e:	77 27       	eor	r23, r23
    1180:	cb 01       	movw	r24, r22
    1182:	97 f9       	bld	r25, 7
    1184:	08 95       	ret

00001186 <__mulsi3>:
    1186:	db 01       	movw	r26, r22
    1188:	8f 93       	push	r24
    118a:	9f 93       	push	r25
    118c:	0e 94 d3 08 	call	0x11a6	; 0x11a6 <__muluhisi3>
    1190:	bf 91       	pop	r27
    1192:	af 91       	pop	r26
    1194:	a2 9f       	mul	r26, r18
    1196:	80 0d       	add	r24, r0
    1198:	91 1d       	adc	r25, r1
    119a:	a3 9f       	mul	r26, r19
    119c:	90 0d       	add	r25, r0
    119e:	b2 9f       	mul	r27, r18
    11a0:	90 0d       	add	r25, r0
    11a2:	11 24       	eor	r1, r1
    11a4:	08 95       	ret

000011a6 <__muluhisi3>:
    11a6:	0e 94 de 08 	call	0x11bc	; 0x11bc <__umulhisi3>
    11aa:	a5 9f       	mul	r26, r21
    11ac:	90 0d       	add	r25, r0
    11ae:	b4 9f       	mul	r27, r20
    11b0:	90 0d       	add	r25, r0
    11b2:	a4 9f       	mul	r26, r20
    11b4:	80 0d       	add	r24, r0
    11b6:	91 1d       	adc	r25, r1
    11b8:	11 24       	eor	r1, r1
    11ba:	08 95       	ret

000011bc <__umulhisi3>:
    11bc:	a2 9f       	mul	r26, r18
    11be:	b0 01       	movw	r22, r0
    11c0:	b3 9f       	mul	r27, r19
    11c2:	c0 01       	movw	r24, r0
    11c4:	a3 9f       	mul	r26, r19
    11c6:	70 0d       	add	r23, r0
    11c8:	81 1d       	adc	r24, r1
    11ca:	11 24       	eor	r1, r1
    11cc:	91 1d       	adc	r25, r1
    11ce:	b2 9f       	mul	r27, r18
    11d0:	70 0d       	add	r23, r0
    11d2:	81 1d       	adc	r24, r1
    11d4:	11 24       	eor	r1, r1
    11d6:	91 1d       	adc	r25, r1
    11d8:	08 95       	ret

000011da <_exit>:
    11da:	f8 94       	cli

000011dc <__stop_program>:
    11dc:	ff cf       	rjmp	.-2      	; 0x11dc <__stop_program>
