
ATM_MCU.elf:     file format elf32-avr

Sections:
Idx Name          Size      VMA       LMA       File off  Algn
  0 .text         0000223c  00000000  00000000  00000094  2**1
                  CONTENTS, ALLOC, LOAD, READONLY, CODE
  1 .data         00000238  00800060  0000223c  000022d0  2**0
                  CONTENTS, ALLOC, LOAD, DATA
  2 .bss          00000055  00800298  00800298  00002508  2**0
                  ALLOC
  3 .comment      0000005c  00000000  00000000  00002508  2**0
                  CONTENTS, READONLY
  4 .note.gnu.avr.deviceinfo 0000003c  00000000  00000000  00002564  2**2
                  CONTENTS, READONLY
  5 .debug_aranges 000004b0  00000000  00000000  000025a0  2**0
                  CONTENTS, READONLY, DEBUGGING
  6 .debug_info   00005f46  00000000  00000000  00002a50  2**0
                  CONTENTS, READONLY, DEBUGGING
  7 .debug_abbrev 00001b5a  00000000  00000000  00008996  2**0
                  CONTENTS, READONLY, DEBUGGING
  8 .debug_line   00002fb7  00000000  00000000  0000a4f0  2**0
                  CONTENTS, READONLY, DEBUGGING
  9 .debug_frame  00000c48  00000000  00000000  0000d4a8  2**2
                  CONTENTS, READONLY, DEBUGGING
 10 .debug_str    00001924  00000000  00000000  0000e0f0  2**0
                  CONTENTS, READONLY, DEBUGGING
 11 .debug_loc    0000342f  00000000  00000000  0000fa14  2**0
                  CONTENTS, READONLY, DEBUGGING
 12 .debug_ranges 00000388  00000000  00000000  00012e43  2**0
                  CONTENTS, READONLY, DEBUGGING

Disassembly of section .text:

00000000 <__vectors>:
       0:	0c 94 48 00 	jmp	0x90	; 0x90 <__ctors_end>
       4:	0c 94 3f 0a 	jmp	0x147e	; 0x147e <__vector_1>
       8:	0c 94 68 0a 	jmp	0x14d0	; 0x14d0 <__vector_2>
       c:	0c 94 91 0a 	jmp	0x1522	; 0x1522 <__vector_3>
      10:	0c 94 65 00 	jmp	0xca	; 0xca <__bad_interrupt>
      14:	0c 94 b1 0c 	jmp	0x1962	; 0x1962 <__vector_5>
      18:	0c 94 65 00 	jmp	0xca	; 0xca <__bad_interrupt>
      1c:	0c 94 65 00 	jmp	0xca	; 0xca <__bad_interrupt>
      20:	0c 94 65 00 	jmp	0xca	; 0xca <__bad_interrupt>
      24:	0c 94 65 00 	jmp	0xca	; 0xca <__bad_interrupt>
      28:	0c 94 65 00 	jmp	0xca	; 0xca <__bad_interrupt>
      2c:	0c 94 94 0b 	jmp	0x1728	; 0x1728 <__vector_11>
      30:	0c 94 f8 0a 	jmp	0x15f0	; 0x15f0 <__vector_12>
      34:	0c 94 65 00 	jmp	0xca	; 0xca <__bad_interrupt>
      38:	0c 94 65 00 	jmp	0xca	; 0xca <__bad_interrupt>
      3c:	0c 94 65 00 	jmp	0xca	; 0xca <__bad_interrupt>
      40:	0c 94 65 00 	jmp	0xca	; 0xca <__bad_interrupt>
      44:	0c 94 65 00 	jmp	0xca	; 0xca <__bad_interrupt>
      48:	0c 94 65 00 	jmp	0xca	; 0xca <__bad_interrupt>
      4c:	0c 94 65 00 	jmp	0xca	; 0xca <__bad_interrupt>
      50:	0c 94 65 00 	jmp	0xca	; 0xca <__bad_interrupt>

00000054 <__trampolines_end>:
      54:	4e 41       	sbci	r20, 0x1E	; 30
      56:	4e 49       	Address 0x00000056 is out of bounds.
.word	0xffff	; ????

00000057 <pstr_inity>:
      57:	49 4e 49 54 59                                      INITY

0000005c <pstr_inf>:
      5c:	49 4e 46                                            INF

0000005f <pwr_m10>:
      5f:	cd cc cc 3d 0a d7 23 3c 17 b7 d1 38 77 cc 2b 32     ...=..#<...8w.+2
      6f:	95 95 e6 24 1f b1 4f 0a                             ...$..O.

00000077 <pwr_p10>:
      77:	00 00 20 41 00 00 c8 42 00 40 1c 46 20 bc be 4c     .. A...B.@.F ..L
      87:	ca 1b 0e 5a ae c5 9d 74 00                          ...Z...t.

00000090 <__ctors_end>:
      90:	11 24       	eor	r1, r1
      92:	1f be       	out	0x3f, r1	; 63
      94:	cf e5       	ldi	r28, 0x5F	; 95
      96:	d8 e0       	ldi	r29, 0x08	; 8
      98:	de bf       	out	0x3e, r29	; 62
      9a:	cd bf       	out	0x3d, r28	; 61

0000009c <__do_copy_data>:
      9c:	12 e0       	ldi	r17, 0x02	; 2
      9e:	a0 e6       	ldi	r26, 0x60	; 96
      a0:	b0 e0       	ldi	r27, 0x00	; 0
      a2:	ec e3       	ldi	r30, 0x3C	; 60
      a4:	f2 e2       	ldi	r31, 0x22	; 34
      a6:	02 c0       	rjmp	.+4      	; 0xac <__do_copy_data+0x10>
      a8:	05 90       	lpm	r0, Z+
      aa:	0d 92       	st	X+, r0
      ac:	a8 39       	cpi	r26, 0x98	; 152
      ae:	b1 07       	cpc	r27, r17
      b0:	d9 f7       	brne	.-10     	; 0xa8 <__do_copy_data+0xc>

000000b2 <__do_clear_bss>:
      b2:	22 e0       	ldi	r18, 0x02	; 2
      b4:	a8 e9       	ldi	r26, 0x98	; 152
      b6:	b2 e0       	ldi	r27, 0x02	; 2
      b8:	01 c0       	rjmp	.+2      	; 0xbc <.do_clear_bss_start>

000000ba <.do_clear_bss_loop>:
      ba:	1d 92       	st	X+, r1

000000bc <.do_clear_bss_start>:
      bc:	ad 3e       	cpi	r26, 0xED	; 237
      be:	b2 07       	cpc	r27, r18
      c0:	e1 f7       	brne	.-8      	; 0xba <.do_clear_bss_loop>
      c2:	0e 94 f0 08 	call	0x11e0	; 0x11e0 <main>
      c6:	0c 94 1c 11 	jmp	0x2238	; 0x2238 <_exit>

000000ca <__bad_interrupt>:
      ca:	0c 94 00 00 	jmp	0	; 0x0 <__vectors>

000000ce <TriggerCallBack>:
************************************************************************************************************/


void TriggerCallBack(void)
{
	TriggerState = TRIGGER;
      ce:	10 92 60 00 	sts	0x0060, r1	; 0x800060 <__DATA_REGION_ORIGIN__>
      d2:	08 95       	ret

000000d4 <timer_ovfCount>:
 * RETURN			: void
 */

void timer_ovfCount(void)
{
	global_u8OVFCounter++;
      d4:	80 91 9a 02 	lds	r24, 0x029A	; 0x80029a <global_u8OVFCounter>
      d8:	8f 5f       	subi	r24, 0xFF	; 255
      da:	80 93 9a 02 	sts	0x029A, r24	; 0x80029a <global_u8OVFCounter>
      de:	08 95       	ret

000000e0 <APP_Init>:
}
void APP_Init(void)
{
	
	//(void)HButton_Init(DIO_PINB_2);
	(void)KEYPAD_init();
      e0:	0e 94 ac 05 	call	0xb58	; 0xb58 <KEYPAD_init>
	(void)HTimer_enInit();
      e4:	0e 94 7b 05 	call	0xaf6	; 0xaf6 <HTimer_enInit>
	(void)HTimer_enCBF(timer_ovfCount);
      e8:	8a e6       	ldi	r24, 0x6A	; 106
      ea:	90 e0       	ldi	r25, 0x00	; 0
      ec:	0e 94 8d 05 	call	0xb1a	; 0xb1a <HTimer_enCBF>
	(void)HLCD_vidInit();
      f0:	0e 94 66 07 	call	0xecc	; 0xecc <HLCD_vidInit>
	(void)HSPI_MasterInit();
      f4:	0e 94 6c 04 	call	0x8d8	; 0x8d8 <HSPI_MasterInit>
	(void)H_EXTINT_create(EXTINT0, ANY_LOGICAL_CHANGE,TriggerCallBack);
      f8:	47 e6       	ldi	r20, 0x67	; 103
      fa:	50 e0       	ldi	r21, 0x00	; 0
      fc:	63 e0       	ldi	r22, 0x03	; 3
      fe:	80 e0       	ldi	r24, 0x00	; 0
     100:	0e 94 95 05 	call	0xb2a	; 0xb2a <H_EXTINT_create>
	/*(void)SwICU_Init();*/
	(void)BUZ_Init(&st_g_Buzzer);
     104:	84 e6       	ldi	r24, 0x64	; 100
     106:	91 e0       	ldi	r25, 0x01	; 1
     108:	0e 94 54 04 	call	0x8a8	; 0x8a8 <BUZ_Init>
	(void)HButton_ExtIntInit(DIO_PINB_2);
     10c:	8a e0       	ldi	r24, 0x0A	; 10
     10e:	0e 94 4d 04 	call	0x89a	; 0x89a <HButton_ExtIntInit>
	(void)H_EXTINT_create(EXTINT2, FALLING_EDGE,EXTINT_FUNC);
     112:	40 e7       	ldi	r20, 0x70	; 112
     114:	51 e0       	ldi	r21, 0x01	; 1
     116:	61 e0       	ldi	r22, 0x01	; 1
     118:	82 e0       	ldi	r24, 0x02	; 2
     11a:	0e 94 95 05 	call	0xb2a	; 0xb2a <H_EXTINT_create>
     11e:	08 95       	ret

00000120 <APP_Start>:


void APP_Start(void)
{
			
	switch(TriggerState)
     120:	80 91 60 00 	lds	r24, 0x0060	; 0x800060 <__DATA_REGION_ORIGIN__>
     124:	81 30       	cpi	r24, 0x01	; 1
     126:	79 f1       	breq	.+94     	; 0x186 <APP_Start+0x66>
     128:	18 f0       	brcs	.+6      	; 0x130 <APP_Start+0x10>
     12a:	82 30       	cpi	r24, 0x02	; 2
     12c:	b1 f1       	breq	.+108    	; 0x19a <APP_Start+0x7a>
     12e:	08 95       	ret
	{
		case TRIGGER:
		{
			welcomeFlag = 0;
     130:	10 92 99 02 	sts	0x0299, r1	; 0x800299 <welcomeFlag>
			if(Get_pin(ATMpin)==PIN_NOT_OK)break;
     134:	8c e9       	ldi	r24, 0x9C	; 156
     136:	92 e0       	ldi	r25, 0x02	; 2
     138:	0e 94 12 02 	call	0x424	; 0x424 <Get_pin>
     13c:	84 30       	cpi	r24, 0x04	; 4
     13e:	09 f4       	brne	.+2      	; 0x142 <APP_Start+0x22>
     140:	ce c0       	rjmp	.+412    	; 0x2de <APP_Start+0x1be>
			if(ATM_ValidatePIN() == PIN_MATCHED)
     142:	0e 94 47 03 	call	0x68e	; 0x68e <ATM_ValidatePIN>
     146:	81 11       	cpse	r24, r1
     148:	04 c0       	rjmp	.+8      	; 0x152 <APP_Start+0x32>
			{
				TriggerState = CHECKING;
     14a:	82 e0       	ldi	r24, 0x02	; 2
     14c:	80 93 60 00 	sts	0x0060, r24	; 0x800060 <__DATA_REGION_ORIGIN__>
     150:	08 95       	ret
                  
			}
			else
			{
				trialsFlag++;
     152:	80 91 98 02 	lds	r24, 0x0298	; 0x800298 <__data_end>
     156:	8f 5f       	subi	r24, 0xFF	; 255
     158:	80 93 98 02 	sts	0x0298, r24	; 0x800298 <__data_end>
				/* Lock system if max tries exceeded */
				if(trialsFlag == 3)
     15c:	83 30       	cpi	r24, 0x03	; 3
     15e:	09 f0       	breq	.+2      	; 0x162 <APP_Start+0x42>
     160:	be c0       	rjmp	.+380    	; 0x2de <APP_Start+0x1be>
				{
					HLCD_ClrDisplay();
     162:	0e 94 19 08 	call	0x1032	; 0x1032 <HLCD_ClrDisplay>
					HLCD_gotoXY(0,4);
     166:	64 e0       	ldi	r22, 0x04	; 4
     168:	80 e0       	ldi	r24, 0x00	; 0
     16a:	0e 94 2c 08 	call	0x1058	; 0x1058 <HLCD_gotoXY>
					HLCD_WriteString("LOCKED");
     16e:	8a e8       	ldi	r24, 0x8A	; 138
     170:	91 e0       	ldi	r25, 0x01	; 1
     172:	0e 94 40 08 	call	0x1080	; 0x1080 <HLCD_WriteString>
					deinitAtm(&st_g_Buzzer);
     176:	84 e6       	ldi	r24, 0x64	; 100
     178:	91 e0       	ldi	r25, 0x01	; 1
     17a:	0e 94 43 03 	call	0x686	; 0x686 <deinitAtm>
					TriggerState = IDLE;
     17e:	83 e0       	ldi	r24, 0x03	; 3
     180:	80 93 60 00 	sts	0x0060, r24	; 0x800060 <__DATA_REGION_ORIGIN__>
     184:	08 95       	ret
			//TriggerState = N_TRIGGER;
			break;
		}
		case N_TRIGGER:
		{
			if(welcomeFlag == 0)
     186:	80 91 99 02 	lds	r24, 0x0299	; 0x800299 <welcomeFlag>
     18a:	81 11       	cpse	r24, r1
     18c:	a8 c0       	rjmp	.+336    	; 0x2de <APP_Start+0x1be>
			{
				Welcome();
     18e:	0e 94 a4 01 	call	0x348	; 0x348 <Welcome>
				welcomeFlag = 1;
     192:	81 e0       	ldi	r24, 0x01	; 1
     194:	80 93 99 02 	sts	0x0299, r24	; 0x800299 <welcomeFlag>
     198:	08 95       	ret
			break;
		}
        case CHECKING:
       {

		get_amount_left(Entered_amount);
     19a:	81 e6       	ldi	r24, 0x61	; 97
     19c:	90 e0       	ldi	r25, 0x00	; 0
     19e:	0e 94 a7 02 	call	0x54e	; 0x54e <get_amount_left>
		HLCD_ClrDisplay();
     1a2:	0e 94 19 08 	call	0x1032	; 0x1032 <HLCD_ClrDisplay>
		DB_CHECK = DATABASE_checking(CARDpan,Entered_amount,&newAMOUNT);
     1a6:	46 ec       	ldi	r20, 0xC6	; 198
     1a8:	52 e0       	ldi	r21, 0x02	; 2
     1aa:	61 e6       	ldi	r22, 0x61	; 97
     1ac:	70 e0       	ldi	r23, 0x00	; 0
     1ae:	84 ed       	ldi	r24, 0xD4	; 212
     1b0:	92 e0       	ldi	r25, 0x02	; 2
     1b2:	0e 94 28 04 	call	0x850	; 0x850 <DATABASE_checking>
     1b6:	80 93 ca 02 	sts	0x02CA, r24	; 0x8002ca <DB_CHECK>
		switch(DB_CHECK){
     1ba:	82 30       	cpi	r24, 0x02	; 2
     1bc:	d1 f1       	breq	.+116    	; 0x232 <APP_Start+0x112>
     1be:	28 f4       	brcc	.+10     	; 0x1ca <APP_Start+0xaa>
     1c0:	88 23       	and	r24, r24
     1c2:	51 f0       	breq	.+20     	; 0x1d8 <APP_Start+0xb8>
     1c4:	81 30       	cpi	r24, 0x01	; 1
     1c6:	b1 f0       	breq	.+44     	; 0x1f4 <APP_Start+0xd4>
     1c8:	08 95       	ret
     1ca:	83 30       	cpi	r24, 0x03	; 3
     1cc:	09 f4       	brne	.+2      	; 0x1d0 <APP_Start+0xb0>
     1ce:	50 c0       	rjmp	.+160    	; 0x270 <APP_Start+0x150>
     1d0:	84 30       	cpi	r24, 0x04	; 4
     1d2:	09 f4       	brne	.+2      	; 0x1d6 <APP_Start+0xb6>
     1d4:	6a c0       	rjmp	.+212    	; 0x2aa <APP_Start+0x18a>
     1d6:	08 95       	ret
			case APPROVED:
			{
				ATM_ApprovedCard(newAMOUNT);
     1d8:	60 91 c6 02 	lds	r22, 0x02C6	; 0x8002c6 <newAMOUNT>
     1dc:	70 91 c7 02 	lds	r23, 0x02C7	; 0x8002c7 <newAMOUNT+0x1>
     1e0:	80 91 c8 02 	lds	r24, 0x02C8	; 0x8002c8 <newAMOUNT+0x2>
     1e4:	90 91 c9 02 	lds	r25, 0x02C9	; 0x8002c9 <newAMOUNT+0x3>
     1e8:	0e 94 c0 01 	call	0x380	; 0x380 <ATM_ApprovedCard>
				TriggerState = N_TRIGGER;
     1ec:	81 e0       	ldi	r24, 0x01	; 1
     1ee:	80 93 60 00 	sts	0x0060, r24	; 0x800060 <__DATA_REGION_ORIGIN__>
				break;
     1f2:	08 95       	ret
			}
			case FRAUD_CARD:
			{
				deinitAtm(&st_g_Buzzer);
     1f4:	84 e6       	ldi	r24, 0x64	; 100
     1f6:	91 e0       	ldi	r25, 0x01	; 1
     1f8:	0e 94 43 03 	call	0x686	; 0x686 <deinitAtm>
				HLCD_gotoXY(0, 4);
     1fc:	64 e0       	ldi	r22, 0x04	; 4
     1fe:	80 e0       	ldi	r24, 0x00	; 0
     200:	0e 94 2c 08 	call	0x1058	; 0x1058 <HLCD_gotoXY>
				HLCD_WriteString("This is a");
     204:	81 e9       	ldi	r24, 0x91	; 145
     206:	91 e0       	ldi	r25, 0x01	; 1
     208:	0e 94 40 08 	call	0x1080	; 0x1080 <HLCD_WriteString>
				HLCD_gotoXY(1, 2);
     20c:	62 e0       	ldi	r22, 0x02	; 2
     20e:	81 e0       	ldi	r24, 0x01	; 1
     210:	0e 94 2c 08 	call	0x1058	; 0x1058 <HLCD_gotoXY>
				HLCD_WriteString("Fraud Card");
     214:	8b e9       	ldi	r24, 0x9B	; 155
     216:	91 e0       	ldi	r25, 0x01	; 1
     218:	0e 94 40 08 	call	0x1080	; 0x1080 <HLCD_WriteString>
				HTIM0_SyncDelay(1, Seconds);
     21c:	42 e0       	ldi	r20, 0x02	; 2
     21e:	61 e0       	ldi	r22, 0x01	; 1
     220:	70 e0       	ldi	r23, 0x00	; 0
     222:	80 e0       	ldi	r24, 0x00	; 0
     224:	90 e0       	ldi	r25, 0x00	; 0
     226:	0e 94 d5 04 	call	0x9aa	; 0x9aa <HTIM0_SyncDelay>
				TriggerState = IDLE;
     22a:	83 e0       	ldi	r24, 0x03	; 3
     22c:	80 93 60 00 	sts	0x0060, r24	; 0x800060 <__DATA_REGION_ORIGIN__>
				break;
     230:	08 95       	ret
			}
			case CARD_STOLEN:
			{
				deinitAtm(&st_g_Buzzer);
     232:	84 e6       	ldi	r24, 0x64	; 100
     234:	91 e0       	ldi	r25, 0x01	; 1
     236:	0e 94 43 03 	call	0x686	; 0x686 <deinitAtm>
				HLCD_gotoXY(0, 4);
     23a:	64 e0       	ldi	r22, 0x04	; 4
     23c:	80 e0       	ldi	r24, 0x00	; 0
     23e:	0e 94 2c 08 	call	0x1058	; 0x1058 <HLCD_gotoXY>
				HLCD_WriteString("This Card ");
     242:	86 ea       	ldi	r24, 0xA6	; 166
     244:	91 e0       	ldi	r25, 0x01	; 1
     246:	0e 94 40 08 	call	0x1080	; 0x1080 <HLCD_WriteString>
				HLCD_gotoXY(1, 2);
     24a:	62 e0       	ldi	r22, 0x02	; 2
     24c:	81 e0       	ldi	r24, 0x01	; 1
     24e:	0e 94 2c 08 	call	0x1058	; 0x1058 <HLCD_gotoXY>
				HLCD_WriteString("is Stolen");
     252:	81 eb       	ldi	r24, 0xB1	; 177
     254:	91 e0       	ldi	r25, 0x01	; 1
     256:	0e 94 40 08 	call	0x1080	; 0x1080 <HLCD_WriteString>
				HTIM0_SyncDelay(1, Seconds);
     25a:	42 e0       	ldi	r20, 0x02	; 2
     25c:	61 e0       	ldi	r22, 0x01	; 1
     25e:	70 e0       	ldi	r23, 0x00	; 0
     260:	80 e0       	ldi	r24, 0x00	; 0
     262:	90 e0       	ldi	r25, 0x00	; 0
     264:	0e 94 d5 04 	call	0x9aa	; 0x9aa <HTIM0_SyncDelay>
				TriggerState = IDLE;
     268:	83 e0       	ldi	r24, 0x03	; 3
     26a:	80 93 60 00 	sts	0x0060, r24	; 0x800060 <__DATA_REGION_ORIGIN__>
				break;
     26e:	08 95       	ret
			}
			case EXCEED_MAX_DAILY_AMOUNT:
			{
				
				HLCD_gotoXY(0, 4);
     270:	64 e0       	ldi	r22, 0x04	; 4
     272:	80 e0       	ldi	r24, 0x00	; 0
     274:	0e 94 2c 08 	call	0x1058	; 0x1058 <HLCD_gotoXY>
				HLCD_WriteString("Max Limit ");
     278:	8b eb       	ldi	r24, 0xBB	; 187
     27a:	91 e0       	ldi	r25, 0x01	; 1
     27c:	0e 94 40 08 	call	0x1080	; 0x1080 <HLCD_WriteString>
				HLCD_gotoXY(1, 2);
     280:	62 e0       	ldi	r22, 0x02	; 2
     282:	81 e0       	ldi	r24, 0x01	; 1
     284:	0e 94 2c 08 	call	0x1058	; 0x1058 <HLCD_gotoXY>
				HLCD_WriteString("is Exceeded");
     288:	86 ec       	ldi	r24, 0xC6	; 198
     28a:	91 e0       	ldi	r25, 0x01	; 1
     28c:	0e 94 40 08 	call	0x1080	; 0x1080 <HLCD_WriteString>
				HTIM0_SyncDelay(1, Seconds);
     290:	42 e0       	ldi	r20, 0x02	; 2
     292:	61 e0       	ldi	r22, 0x01	; 1
     294:	70 e0       	ldi	r23, 0x00	; 0
     296:	80 e0       	ldi	r24, 0x00	; 0
     298:	90 e0       	ldi	r25, 0x00	; 0
     29a:	0e 94 d5 04 	call	0x9aa	; 0x9aa <HTIM0_SyncDelay>
				HLCD_ClrDisplay();
     29e:	0e 94 19 08 	call	0x1032	; 0x1032 <HLCD_ClrDisplay>
				TriggerState = CHECKING;
     2a2:	82 e0       	ldi	r24, 0x02	; 2
     2a4:	80 93 60 00 	sts	0x0060, r24	; 0x800060 <__DATA_REGION_ORIGIN__>
				break;
     2a8:	08 95       	ret
			}
			case INSUFFICIENT_FUND:
			{
				
				HLCD_gotoXY(0, 4);
     2aa:	64 e0       	ldi	r22, 0x04	; 4
     2ac:	80 e0       	ldi	r24, 0x00	; 0
     2ae:	0e 94 2c 08 	call	0x1058	; 0x1058 <HLCD_gotoXY>
				HLCD_WriteString("INSUFFICIENT ");
     2b2:	82 ed       	ldi	r24, 0xD2	; 210
     2b4:	91 e0       	ldi	r25, 0x01	; 1
     2b6:	0e 94 40 08 	call	0x1080	; 0x1080 <HLCD_WriteString>
				HLCD_gotoXY(1, 2);
     2ba:	62 e0       	ldi	r22, 0x02	; 2
     2bc:	81 e0       	ldi	r24, 0x01	; 1
     2be:	0e 94 2c 08 	call	0x1058	; 0x1058 <HLCD_gotoXY>
				HLCD_WriteString("FUND");
     2c2:	80 ee       	ldi	r24, 0xE0	; 224
     2c4:	91 e0       	ldi	r25, 0x01	; 1
     2c6:	0e 94 40 08 	call	0x1080	; 0x1080 <HLCD_WriteString>
				HTIM0_SyncDelay(1, Seconds);
     2ca:	42 e0       	ldi	r20, 0x02	; 2
     2cc:	61 e0       	ldi	r22, 0x01	; 1
     2ce:	70 e0       	ldi	r23, 0x00	; 0
     2d0:	80 e0       	ldi	r24, 0x00	; 0
     2d2:	90 e0       	ldi	r25, 0x00	; 0
     2d4:	0e 94 d5 04 	call	0x9aa	; 0x9aa <HTIM0_SyncDelay>
				
				TriggerState = CHECKING;
     2d8:	82 e0       	ldi	r24, 0x02	; 2
     2da:	80 93 60 00 	sts	0x0060, r24	; 0x800060 <__DATA_REGION_ORIGIN__>
     2de:	08 95       	ret

000002e0 <EXTINT_FUNC>:
     2e0:	80 91 9b 02 	lds	r24, 0x029B	; 0x80029b <counter.2217>
     2e4:	81 11       	cpse	r24, r1
     2e6:	10 c0       	rjmp	.+32     	; 0x308 <EXTINT_FUNC+0x28>
     2e8:	64 e6       	ldi	r22, 0x64	; 100
     2ea:	70 e0       	ldi	r23, 0x00	; 0
     2ec:	80 e0       	ldi	r24, 0x00	; 0
     2ee:	90 e0       	ldi	r25, 0x00	; 0
     2f0:	0e 94 85 05 	call	0xb0a	; 0xb0a <HTimer_vidDelayMs>
     2f4:	40 e7       	ldi	r20, 0x70	; 112
     2f6:	51 e0       	ldi	r21, 0x01	; 1
     2f8:	62 e0       	ldi	r22, 0x02	; 2
     2fa:	82 e0       	ldi	r24, 0x02	; 2
     2fc:	0e 94 95 05 	call	0xb2a	; 0xb2a <H_EXTINT_create>
     300:	81 e0       	ldi	r24, 0x01	; 1
     302:	80 93 9b 02 	sts	0x029B, r24	; 0x80029b <counter.2217>
     306:	08 95       	ret
     308:	81 30       	cpi	r24, 0x01	; 1
     30a:	e9 f4       	brne	.+58     	; 0x346 <EXTINT_FUNC+0x66>
     30c:	0e 94 8a 05 	call	0xb14	; 0xb14 <HTimer_enStop>
     310:	80 91 9a 02 	lds	r24, 0x029A	; 0x80029a <global_u8OVFCounter>
     314:	9f ef       	ldi	r25, 0xFF	; 255
     316:	98 0f       	add	r25, r24
     318:	93 31       	cpi	r25, 0x13	; 19
     31a:	18 f4       	brcc	.+6      	; 0x322 <EXTINT_FUNC+0x42>
     31c:	10 92 69 00 	sts	0x0069, r1	; 0x800069 <myState>
     320:	05 c0       	rjmp	.+10     	; 0x32c <EXTINT_FUNC+0x4c>
     322:	84 31       	cpi	r24, 0x14	; 20
     324:	18 f0       	brcs	.+6      	; 0x32c <EXTINT_FUNC+0x4c>
     326:	81 e0       	ldi	r24, 0x01	; 1
     328:	80 93 69 00 	sts	0x0069, r24	; 0x800069 <myState>
     32c:	10 92 9a 02 	sts	0x029A, r1	; 0x80029a <global_u8OVFCounter>
     330:	40 e7       	ldi	r20, 0x70	; 112
     332:	51 e0       	ldi	r21, 0x01	; 1
     334:	61 e0       	ldi	r22, 0x01	; 1
     336:	82 e0       	ldi	r24, 0x02	; 2
     338:	0e 94 95 05 	call	0xb2a	; 0xb2a <H_EXTINT_create>
     33c:	8a e0       	ldi	r24, 0x0A	; 10
     33e:	0e 94 4d 04 	call	0x89a	; 0x89a <HButton_ExtIntInit>
     342:	10 92 9b 02 	sts	0x029B, r1	; 0x80029b <counter.2217>
     346:	08 95       	ret

00000348 <Welcome>:
     348:	0e 94 19 08 	call	0x1032	; 0x1032 <HLCD_ClrDisplay>
     34c:	60 e0       	ldi	r22, 0x00	; 0
     34e:	80 e0       	ldi	r24, 0x00	; 0
     350:	0e 94 2c 08 	call	0x1058	; 0x1058 <HLCD_gotoXY>
     354:	85 ee       	ldi	r24, 0xE5	; 229
     356:	91 e0       	ldi	r25, 0x01	; 1
     358:	0e 94 40 08 	call	0x1080	; 0x1080 <HLCD_WriteString>
     35c:	42 e0       	ldi	r20, 0x02	; 2
     35e:	61 e0       	ldi	r22, 0x01	; 1
     360:	70 e0       	ldi	r23, 0x00	; 0
     362:	80 e0       	ldi	r24, 0x00	; 0
     364:	90 e0       	ldi	r25, 0x00	; 0
     366:	0e 94 d5 04 	call	0x9aa	; 0x9aa <HTIM0_SyncDelay>
     36a:	0e 94 19 08 	call	0x1032	; 0x1032 <HLCD_ClrDisplay>
     36e:	60 e0       	ldi	r22, 0x00	; 0
     370:	80 e0       	ldi	r24, 0x00	; 0
     372:	0e 94 2c 08 	call	0x1058	; 0x1058 <HLCD_gotoXY>
     376:	84 ef       	ldi	r24, 0xF4	; 244
     378:	91 e0       	ldi	r25, 0x01	; 1
     37a:	0e 94 40 08 	call	0x1080	; 0x1080 <HLCD_WriteString>
     37e:	08 95       	ret

00000380 <ATM_ApprovedCard>:
     380:	cf 92       	push	r12
     382:	df 92       	push	r13
     384:	ef 92       	push	r14
     386:	ff 92       	push	r15
     388:	6b 01       	movw	r12, r22
     38a:	7c 01       	movw	r14, r24
     38c:	64 e0       	ldi	r22, 0x04	; 4
     38e:	80 e0       	ldi	r24, 0x00	; 0
     390:	0e 94 2c 08 	call	0x1058	; 0x1058 <HLCD_gotoXY>
     394:	85 e0       	ldi	r24, 0x05	; 5
     396:	92 e0       	ldi	r25, 0x02	; 2
     398:	0e 94 40 08 	call	0x1080	; 0x1080 <HLCD_WriteString>
     39c:	62 e0       	ldi	r22, 0x02	; 2
     39e:	81 e0       	ldi	r24, 0x01	; 1
     3a0:	0e 94 2c 08 	call	0x1058	; 0x1058 <HLCD_gotoXY>
     3a4:	8e e0       	ldi	r24, 0x0E	; 14
     3a6:	92 e0       	ldi	r25, 0x02	; 2
     3a8:	0e 94 40 08 	call	0x1080	; 0x1080 <HLCD_WriteString>
     3ac:	42 e0       	ldi	r20, 0x02	; 2
     3ae:	61 e0       	ldi	r22, 0x01	; 1
     3b0:	70 e0       	ldi	r23, 0x00	; 0
     3b2:	80 e0       	ldi	r24, 0x00	; 0
     3b4:	90 e0       	ldi	r25, 0x00	; 0
     3b6:	0e 94 d5 04 	call	0x9aa	; 0x9aa <HTIM0_SyncDelay>
     3ba:	0e 94 19 08 	call	0x1032	; 0x1032 <HLCD_ClrDisplay>
     3be:	64 e0       	ldi	r22, 0x04	; 4
     3c0:	80 e0       	ldi	r24, 0x00	; 0
     3c2:	0e 94 2c 08 	call	0x1058	; 0x1058 <HLCD_gotoXY>
     3c6:	8a e1       	ldi	r24, 0x1A	; 26
     3c8:	92 e0       	ldi	r25, 0x02	; 2
     3ca:	0e 94 40 08 	call	0x1080	; 0x1080 <HLCD_WriteString>
     3ce:	60 e0       	ldi	r22, 0x00	; 0
     3d0:	81 e0       	ldi	r24, 0x01	; 1
     3d2:	0e 94 2c 08 	call	0x1058	; 0x1058 <HLCD_gotoXY>
     3d6:	84 e2       	ldi	r24, 0x24	; 36
     3d8:	92 e0       	ldi	r25, 0x02	; 2
     3da:	0e 94 40 08 	call	0x1080	; 0x1080 <HLCD_WriteString>
     3de:	c7 01       	movw	r24, r14
     3e0:	b6 01       	movw	r22, r12
     3e2:	0e 94 58 08 	call	0x10b0	; 0x10b0 <HLCD_DisplayFloat>
     3e6:	42 e0       	ldi	r20, 0x02	; 2
     3e8:	61 e0       	ldi	r22, 0x01	; 1
     3ea:	70 e0       	ldi	r23, 0x00	; 0
     3ec:	80 e0       	ldi	r24, 0x00	; 0
     3ee:	90 e0       	ldi	r25, 0x00	; 0
     3f0:	0e 94 d5 04 	call	0x9aa	; 0x9aa <HTIM0_SyncDelay>
     3f4:	0e 94 19 08 	call	0x1032	; 0x1032 <HLCD_ClrDisplay>
     3f8:	61 e0       	ldi	r22, 0x01	; 1
     3fa:	80 e0       	ldi	r24, 0x00	; 0
     3fc:	0e 94 2c 08 	call	0x1058	; 0x1058 <HLCD_gotoXY>
     400:	8e e2       	ldi	r24, 0x2E	; 46
     402:	92 e0       	ldi	r25, 0x02	; 2
     404:	0e 94 40 08 	call	0x1080	; 0x1080 <HLCD_WriteString>
     408:	42 e0       	ldi	r20, 0x02	; 2
     40a:	61 e0       	ldi	r22, 0x01	; 1
     40c:	70 e0       	ldi	r23, 0x00	; 0
     40e:	80 e0       	ldi	r24, 0x00	; 0
     410:	90 e0       	ldi	r25, 0x00	; 0
     412:	0e 94 d5 04 	call	0x9aa	; 0x9aa <HTIM0_SyncDelay>
     416:	0e 94 19 08 	call	0x1032	; 0x1032 <HLCD_ClrDisplay>
     41a:	ff 90       	pop	r15
     41c:	ef 90       	pop	r14
     41e:	df 90       	pop	r13
     420:	cf 90       	pop	r12
     422:	08 95       	ret

00000424 <Get_pin>:
     424:	ef 92       	push	r14
     426:	ff 92       	push	r15
     428:	0f 93       	push	r16
     42a:	1f 93       	push	r17
     42c:	cf 93       	push	r28
     42e:	df 93       	push	r29
     430:	8c 01       	movw	r16, r24
     432:	0e 94 19 08 	call	0x1032	; 0x1032 <HLCD_ClrDisplay>
     436:	60 e0       	ldi	r22, 0x00	; 0
     438:	80 e0       	ldi	r24, 0x00	; 0
     43a:	0e 94 2c 08 	call	0x1058	; 0x1058 <HLCD_gotoXY>
     43e:	8c e3       	ldi	r24, 0x3C	; 60
     440:	92 e0       	ldi	r25, 0x02	; 2
     442:	0e 94 40 08 	call	0x1080	; 0x1080 <HLCD_WriteString>
     446:	d0 e0       	ldi	r29, 0x00	; 0
     448:	f1 2c       	mov	r15, r1
     44a:	33 c0       	rjmp	.+102    	; 0x4b2 <Get_pin+0x8e>
     44c:	0e 94 f7 06 	call	0xdee	; 0xdee <KEYPAD_GetButton>
     450:	c8 2f       	mov	r28, r24
     452:	81 11       	cpse	r24, r1
     454:	18 c0       	rjmp	.+48     	; 0x486 <Get_pin+0x62>
     456:	80 91 69 00 	lds	r24, 0x0069	; 0x800069 <myState>
     45a:	81 11       	cpse	r24, r1
     45c:	2a c0       	rjmp	.+84     	; 0x4b2 <Get_pin+0x8e>
     45e:	82 e0       	ldi	r24, 0x02	; 2
     460:	80 93 69 00 	sts	0x0069, r24	; 0x800069 <myState>
     464:	f8 01       	movw	r30, r16
     466:	ed 0f       	add	r30, r29
     468:	f1 1d       	adc	r31, r1
     46a:	80 e3       	ldi	r24, 0x30	; 48
     46c:	80 83       	st	Z, r24
     46e:	c1 e0       	ldi	r28, 0x01	; 1
     470:	cf 0d       	add	r28, r15
     472:	6f 2d       	mov	r22, r15
     474:	81 e0       	ldi	r24, 0x01	; 1
     476:	0e 94 2c 08 	call	0x1058	; 0x1058 <HLCD_gotoXY>
     47a:	80 e3       	ldi	r24, 0x30	; 48
     47c:	0e 94 b5 07 	call	0xf6a	; 0xf6a <HLCD_vidWriteChar>
     480:	df 5f       	subi	r29, 0xFF	; 255
     482:	fc 2e       	mov	r15, r28
     484:	16 c0       	rjmp	.+44     	; 0x4b2 <Get_pin+0x8e>
     486:	88 23       	and	r24, r24
     488:	a1 f0       	breq	.+40     	; 0x4b2 <Get_pin+0x8e>
     48a:	ee 24       	eor	r14, r14
     48c:	e3 94       	inc	r14
     48e:	ef 0c       	add	r14, r15
     490:	6f 2d       	mov	r22, r15
     492:	81 e0       	ldi	r24, 0x01	; 1
     494:	0e 94 2c 08 	call	0x1058	; 0x1058 <HLCD_gotoXY>
     498:	d8 01       	movw	r26, r16
     49a:	ad 0f       	add	r26, r29
     49c:	b1 1d       	adc	r27, r1
     49e:	ec 2f       	mov	r30, r28
     4a0:	f0 e0       	ldi	r31, 0x00	; 0
     4a2:	ec 59       	subi	r30, 0x9C	; 156
     4a4:	fe 4f       	sbci	r31, 0xFE	; 254
     4a6:	80 81       	ld	r24, Z
     4a8:	8c 93       	st	X, r24
     4aa:	0e 94 b5 07 	call	0xf6a	; 0xf6a <HLCD_vidWriteChar>
     4ae:	df 5f       	subi	r29, 0xFF	; 255
     4b0:	fe 2c       	mov	r15, r14
     4b2:	d4 30       	cpi	r29, 0x04	; 4
     4b4:	20 f4       	brcc	.+8      	; 0x4be <Get_pin+0x9a>
     4b6:	80 91 69 00 	lds	r24, 0x0069	; 0x800069 <myState>
     4ba:	81 30       	cpi	r24, 0x01	; 1
     4bc:	39 f6       	brne	.-114    	; 0x44c <Get_pin+0x28>
     4be:	d4 30       	cpi	r29, 0x04	; 4
     4c0:	78 f4       	brcc	.+30     	; 0x4e0 <Get_pin+0xbc>
     4c2:	82 e0       	ldi	r24, 0x02	; 2
     4c4:	80 93 69 00 	sts	0x0069, r24	; 0x800069 <myState>
     4c8:	0e 94 19 08 	call	0x1032	; 0x1032 <HLCD_ClrDisplay>
     4cc:	60 e0       	ldi	r22, 0x00	; 0
     4ce:	81 e0       	ldi	r24, 0x01	; 1
     4d0:	0e 94 2c 08 	call	0x1058	; 0x1058 <HLCD_gotoXY>
     4d4:	8b e4       	ldi	r24, 0x4B	; 75
     4d6:	92 e0       	ldi	r25, 0x02	; 2
     4d8:	0e 94 40 08 	call	0x1080	; 0x1080 <HLCD_WriteString>
     4dc:	84 e0       	ldi	r24, 0x04	; 4
     4de:	01 c0       	rjmp	.+2      	; 0x4e2 <Get_pin+0xbe>
     4e0:	83 e0       	ldi	r24, 0x03	; 3
     4e2:	df 91       	pop	r29
     4e4:	cf 91       	pop	r28
     4e6:	1f 91       	pop	r17
     4e8:	0f 91       	pop	r16
     4ea:	ff 90       	pop	r15
     4ec:	ef 90       	pop	r14
     4ee:	08 95       	ret

000004f0 <PIN_checkPinMatching>:
     4f0:	00 97       	sbiw	r24, 0x00	; 0
     4f2:	49 f1       	breq	.+82     	; 0x546 <PIN_checkPinMatching+0x56>
     4f4:	61 15       	cp	r22, r1
     4f6:	71 05       	cpc	r23, r1
     4f8:	41 f1       	breq	.+80     	; 0x54a <PIN_checkPinMatching+0x5a>
     4fa:	0e 94 6a 0f 	call	0x1ed4	; 0x1ed4 <strcmp>
     4fe:	89 2b       	or	r24, r25
     500:	89 f4       	brne	.+34     	; 0x524 <PIN_checkPinMatching+0x34>
     502:	0e 94 19 08 	call	0x1032	; 0x1032 <HLCD_ClrDisplay>
     506:	81 e5       	ldi	r24, 0x51	; 81
     508:	92 e0       	ldi	r25, 0x02	; 2
     50a:	0e 94 40 08 	call	0x1080	; 0x1080 <HLCD_WriteString>
     50e:	2f e3       	ldi	r18, 0x3F	; 63
     510:	82 e4       	ldi	r24, 0x42	; 66
     512:	9f e0       	ldi	r25, 0x0F	; 15
     514:	21 50       	subi	r18, 0x01	; 1
     516:	80 40       	sbci	r24, 0x00	; 0
     518:	90 40       	sbci	r25, 0x00	; 0
     51a:	e1 f7       	brne	.-8      	; 0x514 <PIN_checkPinMatching+0x24>
     51c:	00 c0       	rjmp	.+0      	; 0x51e <PIN_checkPinMatching+0x2e>
     51e:	00 00       	nop
     520:	80 e0       	ldi	r24, 0x00	; 0
     522:	08 95       	ret
     524:	0e 94 19 08 	call	0x1032	; 0x1032 <HLCD_ClrDisplay>
     528:	8d e5       	ldi	r24, 0x5D	; 93
     52a:	92 e0       	ldi	r25, 0x02	; 2
     52c:	0e 94 40 08 	call	0x1080	; 0x1080 <HLCD_WriteString>
     530:	2f e3       	ldi	r18, 0x3F	; 63
     532:	82 e4       	ldi	r24, 0x42	; 66
     534:	9f e0       	ldi	r25, 0x0F	; 15
     536:	21 50       	subi	r18, 0x01	; 1
     538:	80 40       	sbci	r24, 0x00	; 0
     53a:	90 40       	sbci	r25, 0x00	; 0
     53c:	e1 f7       	brne	.-8      	; 0x536 <PIN_checkPinMatching+0x46>
     53e:	00 c0       	rjmp	.+0      	; 0x540 <PIN_checkPinMatching+0x50>
     540:	00 00       	nop
     542:	81 e0       	ldi	r24, 0x01	; 1
     544:	08 95       	ret
     546:	82 e0       	ldi	r24, 0x02	; 2
     548:	08 95       	ret
     54a:	82 e0       	ldi	r24, 0x02	; 2
     54c:	08 95       	ret

0000054e <get_amount_left>:
     54e:	df 92       	push	r13
     550:	ef 92       	push	r14
     552:	ff 92       	push	r15
     554:	0f 93       	push	r16
     556:	1f 93       	push	r17
     558:	cf 93       	push	r28
     55a:	df 93       	push	r29
     55c:	7c 01       	movw	r14, r24
     55e:	0e 94 19 08 	call	0x1032	; 0x1032 <HLCD_ClrDisplay>
     562:	60 e0       	ldi	r22, 0x00	; 0
     564:	80 e0       	ldi	r24, 0x00	; 0
     566:	0e 94 2c 08 	call	0x1058	; 0x1058 <HLCD_gotoXY>
     56a:	8d e6       	ldi	r24, 0x6D	; 109
     56c:	92 e0       	ldi	r25, 0x02	; 2
     56e:	0e 94 40 08 	call	0x1080	; 0x1080 <HLCD_WriteString>
     572:	60 e0       	ldi	r22, 0x00	; 0
     574:	81 e0       	ldi	r24, 0x01	; 1
     576:	0e 94 2c 08 	call	0x1058	; 0x1058 <HLCD_gotoXY>
     57a:	c7 01       	movw	r24, r14
     57c:	0e 94 40 08 	call	0x1080	; 0x1080 <HLCD_WriteString>
     580:	d1 2c       	mov	r13, r1
     582:	71 c0       	rjmp	.+226    	; 0x666 <get_amount_left+0x118>
     584:	0e 94 f7 06 	call	0xdee	; 0xdee <KEYPAD_GetButton>
     588:	d8 2f       	mov	r29, r24
     58a:	81 11       	cpse	r24, r1
     58c:	59 c0       	rjmp	.+178    	; 0x640 <get_amount_left+0xf2>
     58e:	80 91 69 00 	lds	r24, 0x0069	; 0x800069 <myState>
     592:	81 11       	cpse	r24, r1
     594:	68 c0       	rjmp	.+208    	; 0x666 <get_amount_left+0x118>
     596:	82 e0       	ldi	r24, 0x02	; 2
     598:	80 93 69 00 	sts	0x0069, r24	; 0x800069 <myState>
     59c:	c0 e0       	ldi	r28, 0x00	; 0
     59e:	20 c0       	rjmp	.+64     	; 0x5e0 <get_amount_left+0x92>
     5a0:	c3 30       	cpi	r28, 0x03	; 3
     5a2:	79 f4       	brne	.+30     	; 0x5c2 <get_amount_left+0x74>
     5a4:	87 01       	movw	r16, r14
     5a6:	0c 0f       	add	r16, r28
     5a8:	11 1d       	adc	r17, r1
     5aa:	f8 01       	movw	r30, r16
     5ac:	82 81       	ldd	r24, Z+2	; 0x02
     5ae:	80 83       	st	Z, r24
     5b0:	6c 2f       	mov	r22, r28
     5b2:	81 e0       	ldi	r24, 0x01	; 1
     5b4:	0e 94 2c 08 	call	0x1058	; 0x1058 <HLCD_gotoXY>
     5b8:	f8 01       	movw	r30, r16
     5ba:	80 81       	ld	r24, Z
     5bc:	0e 94 b5 07 	call	0xf6a	; 0xf6a <HLCD_vidWriteChar>
     5c0:	c5 e0       	ldi	r28, 0x05	; 5
     5c2:	87 01       	movw	r16, r14
     5c4:	0c 0f       	add	r16, r28
     5c6:	11 1d       	adc	r17, r1
     5c8:	f8 01       	movw	r30, r16
     5ca:	81 81       	ldd	r24, Z+1	; 0x01
     5cc:	80 83       	st	Z, r24
     5ce:	6c 2f       	mov	r22, r28
     5d0:	81 e0       	ldi	r24, 0x01	; 1
     5d2:	0e 94 2c 08 	call	0x1058	; 0x1058 <HLCD_gotoXY>
     5d6:	f8 01       	movw	r30, r16
     5d8:	80 81       	ld	r24, Z
     5da:	0e 94 b5 07 	call	0xf6a	; 0xf6a <HLCD_vidWriteChar>
     5de:	cf 5f       	subi	r28, 0xFF	; 255
     5e0:	c6 30       	cpi	r28, 0x06	; 6
     5e2:	f0 f2       	brcs	.-68     	; 0x5a0 <get_amount_left+0x52>
     5e4:	80 e3       	ldi	r24, 0x30	; 48
     5e6:	f7 01       	movw	r30, r14
     5e8:	86 83       	std	Z+6, r24	; 0x06
     5ea:	66 e0       	ldi	r22, 0x06	; 6
     5ec:	81 e0       	ldi	r24, 0x01	; 1
     5ee:	0e 94 2c 08 	call	0x1058	; 0x1058 <HLCD_gotoXY>
     5f2:	f7 01       	movw	r30, r14
     5f4:	86 81       	ldd	r24, Z+6	; 0x06
     5f6:	0e 94 b5 07 	call	0xf6a	; 0xf6a <HLCD_vidWriteChar>
     5fa:	d3 94       	inc	r13
     5fc:	34 c0       	rjmp	.+104    	; 0x666 <get_amount_left+0x118>
     5fe:	c3 30       	cpi	r28, 0x03	; 3
     600:	79 f4       	brne	.+30     	; 0x620 <get_amount_left+0xd2>
     602:	87 01       	movw	r16, r14
     604:	0c 0f       	add	r16, r28
     606:	11 1d       	adc	r17, r1
     608:	f8 01       	movw	r30, r16
     60a:	82 81       	ldd	r24, Z+2	; 0x02
     60c:	80 83       	st	Z, r24
     60e:	6c 2f       	mov	r22, r28
     610:	81 e0       	ldi	r24, 0x01	; 1
     612:	0e 94 2c 08 	call	0x1058	; 0x1058 <HLCD_gotoXY>
     616:	f8 01       	movw	r30, r16
     618:	80 81       	ld	r24, Z
     61a:	0e 94 b5 07 	call	0xf6a	; 0xf6a <HLCD_vidWriteChar>
     61e:	c5 e0       	ldi	r28, 0x05	; 5
     620:	87 01       	movw	r16, r14
     622:	0c 0f       	add	r16, r28
     624:	11 1d       	adc	r17, r1
     626:	f8 01       	movw	r30, r16
     628:	81 81       	ldd	r24, Z+1	; 0x01
     62a:	80 83       	st	Z, r24
     62c:	6c 2f       	mov	r22, r28
     62e:	81 e0       	ldi	r24, 0x01	; 1
     630:	0e 94 2c 08 	call	0x1058	; 0x1058 <HLCD_gotoXY>
     634:	f8 01       	movw	r30, r16
     636:	80 81       	ld	r24, Z
     638:	0e 94 b5 07 	call	0xf6a	; 0xf6a <HLCD_vidWriteChar>
     63c:	cf 5f       	subi	r28, 0xFF	; 255
     63e:	01 c0       	rjmp	.+2      	; 0x642 <get_amount_left+0xf4>
     640:	c0 e0       	ldi	r28, 0x00	; 0
     642:	c6 30       	cpi	r28, 0x06	; 6
     644:	e0 f2       	brcs	.-72     	; 0x5fe <get_amount_left+0xb0>
     646:	ed 2f       	mov	r30, r29
     648:	f0 e0       	ldi	r31, 0x00	; 0
     64a:	ec 59       	subi	r30, 0x9C	; 156
     64c:	fe 4f       	sbci	r31, 0xFE	; 254
     64e:	80 81       	ld	r24, Z
     650:	f7 01       	movw	r30, r14
     652:	86 83       	std	Z+6, r24	; 0x06
     654:	66 e0       	ldi	r22, 0x06	; 6
     656:	81 e0       	ldi	r24, 0x01	; 1
     658:	0e 94 2c 08 	call	0x1058	; 0x1058 <HLCD_gotoXY>
     65c:	f7 01       	movw	r30, r14
     65e:	86 81       	ldd	r24, Z+6	; 0x06
     660:	0e 94 b5 07 	call	0xf6a	; 0xf6a <HLCD_vidWriteChar>
     664:	d3 94       	inc	r13
     666:	f5 e0       	ldi	r31, 0x05	; 5
     668:	fd 15       	cp	r31, r13
     66a:	28 f0       	brcs	.+10     	; 0x676 <get_amount_left+0x128>
     66c:	80 91 69 00 	lds	r24, 0x0069	; 0x800069 <myState>
     670:	81 30       	cpi	r24, 0x01	; 1
     672:	09 f0       	breq	.+2      	; 0x676 <get_amount_left+0x128>
     674:	87 cf       	rjmp	.-242    	; 0x584 <get_amount_left+0x36>
     676:	df 91       	pop	r29
     678:	cf 91       	pop	r28
     67a:	1f 91       	pop	r17
     67c:	0f 91       	pop	r16
     67e:	ff 90       	pop	r15
     680:	ef 90       	pop	r14
     682:	df 90       	pop	r13
     684:	08 95       	ret

00000686 <deinitAtm>:
     686:	61 e0       	ldi	r22, 0x01	; 1
     688:	0e 94 62 04 	call	0x8c4	; 0x8c4 <BUZ_SetState>
     68c:	08 95       	ret

0000068e <ATM_ValidatePIN>:
     68e:	80 e5       	ldi	r24, 0x50	; 80
     690:	0e 94 87 04 	call	0x90e	; 0x90e <HSPI_SendChar>
	#else
		//round up by default
		__ticks_dc = (uint32_t)(ceil(fabs(__tmp)));
	#endif

	__builtin_avr_delay_cycles(__ticks_dc);
     694:	81 ee       	ldi	r24, 0xE1	; 225
     696:	94 e0       	ldi	r25, 0x04	; 4
     698:	01 97       	sbiw	r24, 0x01	; 1
     69a:	f1 f7       	brne	.-4      	; 0x698 <ATM_ValidatePIN+0xa>
     69c:	00 c0       	rjmp	.+0      	; 0x69e <ATM_ValidatePIN+0x10>
     69e:	00 00       	nop
     6a0:	65 e0       	ldi	r22, 0x05	; 5
     6a2:	8b ec       	ldi	r24, 0xCB	; 203
     6a4:	92 e0       	ldi	r25, 0x02	; 2
     6a6:	0e 94 a1 04 	call	0x942	; 0x942 <HSPI_ReceiveData>
     6aa:	87 e4       	ldi	r24, 0x47	; 71
     6ac:	0e 94 87 04 	call	0x90e	; 0x90e <HSPI_SendChar>
     6b0:	81 ee       	ldi	r24, 0xE1	; 225
     6b2:	94 e0       	ldi	r25, 0x04	; 4
     6b4:	01 97       	sbiw	r24, 0x01	; 1
     6b6:	f1 f7       	brne	.-4      	; 0x6b4 <ATM_ValidatePIN+0x26>
     6b8:	00 c0       	rjmp	.+0      	; 0x6ba <ATM_ValidatePIN+0x2c>
     6ba:	00 00       	nop
     6bc:	64 e1       	ldi	r22, 0x14	; 20
     6be:	84 ed       	ldi	r24, 0xD4	; 212
     6c0:	92 e0       	ldi	r25, 0x02	; 2
     6c2:	0e 94 a1 04 	call	0x942	; 0x942 <HSPI_ReceiveData>
     6c6:	6c e9       	ldi	r22, 0x9C	; 156
     6c8:	72 e0       	ldi	r23, 0x02	; 2
     6ca:	8b ec       	ldi	r24, 0xCB	; 203
     6cc:	92 e0       	ldi	r25, 0x02	; 2
     6ce:	0e 94 78 02 	call	0x4f0	; 0x4f0 <PIN_checkPinMatching>
     6d2:	08 95       	ret

000006d4 <isBelowMaxDailyAmount>:
     6d4:	6a e7       	ldi	r22, 0x7A	; 122
     6d6:	72 e0       	ldi	r23, 0x02	; 2
     6d8:	0e 94 6a 0f 	call	0x1ed4	; 0x1ed4 <strcmp>
     6dc:	18 16       	cp	r1, r24
     6de:	14 f0       	brlt	.+4      	; 0x6e4 <isBelowMaxDailyAmount+0x10>
     6e0:	80 e0       	ldi	r24, 0x00	; 0
     6e2:	08 95       	ret
     6e4:	83 e0       	ldi	r24, 0x03	; 3
     6e6:	08 95       	ret

000006e8 <isValidPanAccount>:
     6e8:	0f 93       	push	r16
     6ea:	1f 93       	push	r17
     6ec:	cf 93       	push	r28
     6ee:	8c 01       	movw	r16, r24
     6f0:	c0 e0       	ldi	r28, 0x00	; 0
     6f2:	0c c0       	rjmp	.+24     	; 0x70c <isValidPanAccount+0x24>
     6f4:	89 e1       	ldi	r24, 0x19	; 25
     6f6:	c8 9f       	mul	r28, r24
     6f8:	b0 01       	movw	r22, r0
     6fa:	11 24       	eor	r1, r1
     6fc:	61 59       	subi	r22, 0x91	; 145
     6fe:	7f 4f       	sbci	r23, 0xFF	; 255
     700:	c8 01       	movw	r24, r16
     702:	0e 94 6a 0f 	call	0x1ed4	; 0x1ed4 <strcmp>
     706:	88 23       	and	r24, r24
     708:	29 f0       	breq	.+10     	; 0x714 <isValidPanAccount+0x2c>
     70a:	cf 5f       	subi	r28, 0xFF	; 255
     70c:	ca 30       	cpi	r28, 0x0A	; 10
     70e:	90 f3       	brcs	.-28     	; 0x6f4 <isValidPanAccount+0xc>
     710:	81 e0       	ldi	r24, 0x01	; 1
     712:	01 c0       	rjmp	.+2      	; 0x716 <isValidPanAccount+0x2e>
     714:	80 e0       	ldi	r24, 0x00	; 0
     716:	cf 91       	pop	r28
     718:	1f 91       	pop	r17
     71a:	0f 91       	pop	r16
     71c:	08 95       	ret

0000071e <isRunningAccount>:
     71e:	ef 92       	push	r14
     720:	ff 92       	push	r15
     722:	0f 93       	push	r16
     724:	1f 93       	push	r17
     726:	cf 93       	push	r28
     728:	7c 01       	movw	r14, r24
     72a:	c0 e0       	ldi	r28, 0x00	; 0
     72c:	1d c0       	rjmp	.+58     	; 0x768 <isRunningAccount+0x4a>
     72e:	0c 2f       	mov	r16, r28
     730:	10 e0       	ldi	r17, 0x00	; 0
     732:	89 e1       	ldi	r24, 0x19	; 25
     734:	80 9f       	mul	r24, r16
     736:	b0 01       	movw	r22, r0
     738:	81 9f       	mul	r24, r17
     73a:	70 0d       	add	r23, r0
     73c:	11 24       	eor	r1, r1
     73e:	61 59       	subi	r22, 0x91	; 145
     740:	7f 4f       	sbci	r23, 0xFF	; 255
     742:	c7 01       	movw	r24, r14
     744:	0e 94 6a 0f 	call	0x1ed4	; 0x1ed4 <strcmp>
     748:	81 11       	cpse	r24, r1
     74a:	0d c0       	rjmp	.+26     	; 0x766 <isRunningAccount+0x48>
     74c:	89 e1       	ldi	r24, 0x19	; 25
     74e:	80 9f       	mul	r24, r16
     750:	f0 01       	movw	r30, r0
     752:	81 9f       	mul	r24, r17
     754:	f0 0d       	add	r31, r0
     756:	11 24       	eor	r1, r1
     758:	e6 59       	subi	r30, 0x96	; 150
     75a:	ff 4f       	sbci	r31, 0xFF	; 255
     75c:	84 81       	ldd	r24, Z+4	; 0x04
     75e:	88 23       	and	r24, r24
     760:	39 f0       	breq	.+14     	; 0x770 <isRunningAccount+0x52>
     762:	82 e0       	ldi	r24, 0x02	; 2
     764:	06 c0       	rjmp	.+12     	; 0x772 <isRunningAccount+0x54>
     766:	cf 5f       	subi	r28, 0xFF	; 255
     768:	ca 30       	cpi	r28, 0x0A	; 10
     76a:	08 f3       	brcs	.-62     	; 0x72e <isRunningAccount+0x10>
     76c:	82 e0       	ldi	r24, 0x02	; 2
     76e:	01 c0       	rjmp	.+2      	; 0x772 <isRunningAccount+0x54>
     770:	80 e0       	ldi	r24, 0x00	; 0
     772:	cf 91       	pop	r28
     774:	1f 91       	pop	r17
     776:	0f 91       	pop	r16
     778:	ff 90       	pop	r15
     77a:	ef 90       	pop	r14
     77c:	08 95       	ret

0000077e <isValidAccountAmount>:
     77e:	4f 92       	push	r4
     780:	5f 92       	push	r5
     782:	6f 92       	push	r6
     784:	7f 92       	push	r7
     786:	8f 92       	push	r8
     788:	9f 92       	push	r9
     78a:	af 92       	push	r10
     78c:	bf 92       	push	r11
     78e:	cf 92       	push	r12
     790:	df 92       	push	r13
     792:	ef 92       	push	r14
     794:	ff 92       	push	r15
     796:	0f 93       	push	r16
     798:	1f 93       	push	r17
     79a:	cf 93       	push	r28
     79c:	7c 01       	movw	r14, r24
     79e:	cb 01       	movw	r24, r22
     7a0:	6a 01       	movw	r12, r20
     7a2:	0e 94 66 0f 	call	0x1ecc	; 0x1ecc <atof>
     7a6:	4b 01       	movw	r8, r22
     7a8:	5c 01       	movw	r10, r24
     7aa:	c0 e0       	ldi	r28, 0x00	; 0
     7ac:	3d c0       	rjmp	.+122    	; 0x828 <__DATA_REGION_LENGTH__+0x28>
     7ae:	0c 2f       	mov	r16, r28
     7b0:	10 e0       	ldi	r17, 0x00	; 0
     7b2:	89 e1       	ldi	r24, 0x19	; 25
     7b4:	80 9f       	mul	r24, r16
     7b6:	b0 01       	movw	r22, r0
     7b8:	81 9f       	mul	r24, r17
     7ba:	70 0d       	add	r23, r0
     7bc:	11 24       	eor	r1, r1
     7be:	61 59       	subi	r22, 0x91	; 145
     7c0:	7f 4f       	sbci	r23, 0xFF	; 255
     7c2:	c7 01       	movw	r24, r14
     7c4:	0e 94 6a 0f 	call	0x1ed4	; 0x1ed4 <strcmp>
     7c8:	81 11       	cpse	r24, r1
     7ca:	2d c0       	rjmp	.+90     	; 0x826 <__DATA_REGION_LENGTH__+0x26>
     7cc:	89 e1       	ldi	r24, 0x19	; 25
     7ce:	80 9f       	mul	r24, r16
     7d0:	f0 01       	movw	r30, r0
     7d2:	81 9f       	mul	r24, r17
     7d4:	f0 0d       	add	r31, r0
     7d6:	11 24       	eor	r1, r1
     7d8:	e6 59       	subi	r30, 0x96	; 150
     7da:	ff 4f       	sbci	r31, 0xFF	; 255
     7dc:	40 80       	ld	r4, Z
     7de:	51 80       	ldd	r5, Z+1	; 0x01
     7e0:	62 80       	ldd	r6, Z+2	; 0x02
     7e2:	73 80       	ldd	r7, Z+3	; 0x03
     7e4:	a3 01       	movw	r20, r6
     7e6:	92 01       	movw	r18, r4
     7e8:	c5 01       	movw	r24, r10
     7ea:	b4 01       	movw	r22, r8
     7ec:	0e 94 55 0d 	call	0x1aaa	; 0x1aaa <__cmpsf2>
     7f0:	18 16       	cp	r1, r24
     7f2:	cc f0       	brlt	.+50     	; 0x826 <__DATA_REGION_LENGTH__+0x26>
     7f4:	a5 01       	movw	r20, r10
     7f6:	94 01       	movw	r18, r8
     7f8:	c3 01       	movw	r24, r6
     7fa:	b2 01       	movw	r22, r4
     7fc:	0e 94 e8 0c 	call	0x19d0	; 0x19d0 <__subsf3>
     800:	29 e1       	ldi	r18, 0x19	; 25
     802:	20 9f       	mul	r18, r16
     804:	f0 01       	movw	r30, r0
     806:	21 9f       	mul	r18, r17
     808:	f0 0d       	add	r31, r0
     80a:	11 24       	eor	r1, r1
     80c:	e6 59       	subi	r30, 0x96	; 150
     80e:	ff 4f       	sbci	r31, 0xFF	; 255
     810:	60 83       	st	Z, r22
     812:	71 83       	std	Z+1, r23	; 0x01
     814:	82 83       	std	Z+2, r24	; 0x02
     816:	93 83       	std	Z+3, r25	; 0x03
     818:	f6 01       	movw	r30, r12
     81a:	60 83       	st	Z, r22
     81c:	71 83       	std	Z+1, r23	; 0x01
     81e:	82 83       	std	Z+2, r24	; 0x02
     820:	93 83       	std	Z+3, r25	; 0x03
     822:	80 e0       	ldi	r24, 0x00	; 0
     824:	05 c0       	rjmp	.+10     	; 0x830 <__DATA_REGION_LENGTH__+0x30>
     826:	cf 5f       	subi	r28, 0xFF	; 255
     828:	ca 30       	cpi	r28, 0x0A	; 10
     82a:	08 f4       	brcc	.+2      	; 0x82e <__DATA_REGION_LENGTH__+0x2e>
     82c:	c0 cf       	rjmp	.-128    	; 0x7ae <isValidAccountAmount+0x30>
     82e:	84 e0       	ldi	r24, 0x04	; 4
     830:	cf 91       	pop	r28
     832:	1f 91       	pop	r17
     834:	0f 91       	pop	r16
     836:	ff 90       	pop	r15
     838:	ef 90       	pop	r14
     83a:	df 90       	pop	r13
     83c:	cf 90       	pop	r12
     83e:	bf 90       	pop	r11
     840:	af 90       	pop	r10
     842:	9f 90       	pop	r9
     844:	8f 90       	pop	r8
     846:	7f 90       	pop	r7
     848:	6f 90       	pop	r6
     84a:	5f 90       	pop	r5
     84c:	4f 90       	pop	r4
     84e:	08 95       	ret

00000850 <DATABASE_checking>:
     850:	ef 92       	push	r14
     852:	ff 92       	push	r15
     854:	0f 93       	push	r16
     856:	1f 93       	push	r17
     858:	cf 93       	push	r28
     85a:	df 93       	push	r29
     85c:	ec 01       	movw	r28, r24
     85e:	8b 01       	movw	r16, r22
     860:	7a 01       	movw	r14, r20
     862:	0e 94 74 03 	call	0x6e8	; 0x6e8 <isValidPanAccount>
     866:	81 30       	cpi	r24, 0x01	; 1
     868:	89 f0       	breq	.+34     	; 0x88c <__stack+0x2d>
     86a:	ce 01       	movw	r24, r28
     86c:	0e 94 8f 03 	call	0x71e	; 0x71e <isRunningAccount>
     870:	82 30       	cpi	r24, 0x02	; 2
     872:	61 f0       	breq	.+24     	; 0x88c <__stack+0x2d>
     874:	c8 01       	movw	r24, r16
     876:	0e 94 6a 03 	call	0x6d4	; 0x6d4 <isBelowMaxDailyAmount>
     87a:	83 30       	cpi	r24, 0x03	; 3
     87c:	39 f0       	breq	.+14     	; 0x88c <__stack+0x2d>
     87e:	a7 01       	movw	r20, r14
     880:	b8 01       	movw	r22, r16
     882:	ce 01       	movw	r24, r28
     884:	0e 94 bf 03 	call	0x77e	; 0x77e <isValidAccountAmount>
     888:	84 30       	cpi	r24, 0x04	; 4
     88a:	01 f0       	breq	.+0      	; 0x88c <__stack+0x2d>
     88c:	df 91       	pop	r29
     88e:	cf 91       	pop	r28
     890:	1f 91       	pop	r17
     892:	0f 91       	pop	r16
     894:	ff 90       	pop	r15
     896:	ef 90       	pop	r14
     898:	08 95       	ret

0000089a <HButton_ExtIntInit>:
     89a:	80 32       	cpi	r24, 0x20	; 32
     89c:	18 f4       	brcc	.+6      	; 0x8a4 <HButton_ExtIntInit+0xa>
     89e:	61 e0       	ldi	r22, 0x01	; 1
     8a0:	0e 94 35 09 	call	0x126a	; 0x126a <DIO_s8SETPinVal>
     8a4:	81 e0       	ldi	r24, 0x01	; 1
     8a6:	08 95       	ret

000008a8 <BUZ_Init>:
     8a8:	cf 93       	push	r28
     8aa:	df 93       	push	r29
     8ac:	ec 01       	movw	r28, r24
     8ae:	61 e0       	ldi	r22, 0x01	; 1
     8b0:	88 81       	ld	r24, Y
     8b2:	0e 94 f5 08 	call	0x11ea	; 0x11ea <DIO_s8SETPinDir>
     8b6:	60 e0       	ldi	r22, 0x00	; 0
     8b8:	88 81       	ld	r24, Y
     8ba:	0e 94 35 09 	call	0x126a	; 0x126a <DIO_s8SETPinVal>
     8be:	df 91       	pop	r29
     8c0:	cf 91       	pop	r28
     8c2:	08 95       	ret

000008c4 <BUZ_SetState>:
     8c4:	00 97       	sbiw	r24, 0x00	; 0
     8c6:	31 f0       	breq	.+12     	; 0x8d4 <BUZ_SetState+0x10>
     8c8:	fc 01       	movw	r30, r24
     8ca:	80 81       	ld	r24, Z
     8cc:	0e 94 35 09 	call	0x126a	; 0x126a <DIO_s8SETPinVal>
     8d0:	80 e0       	ldi	r24, 0x00	; 0
     8d2:	08 95       	ret
     8d4:	81 e0       	ldi	r24, 0x01	; 1
     8d6:	08 95       	ret

000008d8 <HSPI_MasterInit>:
	{
		return HSPI_NOK;
	}
	
	return HSPI_OK;	
}
     8d8:	61 e0       	ldi	r22, 0x01	; 1
     8da:	8d e0       	ldi	r24, 0x0D	; 13
     8dc:	0e 94 f5 08 	call	0x11ea	; 0x11ea <DIO_s8SETPinDir>
     8e0:	61 e0       	ldi	r22, 0x01	; 1
     8e2:	8f e0       	ldi	r24, 0x0F	; 15
     8e4:	0e 94 f5 08 	call	0x11ea	; 0x11ea <DIO_s8SETPinDir>
     8e8:	61 e0       	ldi	r22, 0x01	; 1
     8ea:	8c e0       	ldi	r24, 0x0C	; 12
     8ec:	0e 94 f5 08 	call	0x11ea	; 0x11ea <DIO_s8SETPinDir>
     8f0:	61 e0       	ldi	r22, 0x01	; 1
     8f2:	8c e0       	ldi	r24, 0x0C	; 12
     8f4:	0e 94 35 09 	call	0x126a	; 0x126a <DIO_s8SETPinVal>
     8f8:	60 e0       	ldi	r22, 0x00	; 0
     8fa:	8e e0       	ldi	r24, 0x0E	; 14
     8fc:	0e 94 f5 08 	call	0x11ea	; 0x11ea <DIO_s8SETPinDir>
     900:	62 e0       	ldi	r22, 0x02	; 2
     902:	8a e0       	ldi	r24, 0x0A	; 10
     904:	0e 94 9f 09 	call	0x133e	; 0x133e <EXTINT_init>
     908:	0e 94 ba 0a 	call	0x1574	; 0x1574 <SPI_MasterInit>
     90c:	08 95       	ret

0000090e <HSPI_SendChar>:
     90e:	1f 93       	push	r17
     910:	cf 93       	push	r28
     912:	df 93       	push	r29
     914:	1f 92       	push	r1
     916:	cd b7       	in	r28, 0x3d	; 61
     918:	de b7       	in	r29, 0x3e	; 62
     91a:	18 2f       	mov	r17, r24
     91c:	60 e0       	ldi	r22, 0x00	; 0
     91e:	8c e0       	ldi	r24, 0x0C	; 12
     920:	0e 94 35 09 	call	0x126a	; 0x126a <DIO_s8SETPinVal>
     924:	be 01       	movw	r22, r28
     926:	6f 5f       	subi	r22, 0xFF	; 255
     928:	7f 4f       	sbci	r23, 0xFF	; 255
     92a:	81 2f       	mov	r24, r17
     92c:	0e 94 d2 0a 	call	0x15a4	; 0x15a4 <SPI_TranscieveChar>
     930:	61 e0       	ldi	r22, 0x01	; 1
     932:	8c e0       	ldi	r24, 0x0C	; 12
     934:	0e 94 35 09 	call	0x126a	; 0x126a <DIO_s8SETPinVal>
     938:	0f 90       	pop	r0
     93a:	df 91       	pop	r29
     93c:	cf 91       	pop	r28
     93e:	1f 91       	pop	r17
     940:	08 95       	ret

00000942 <HSPI_ReceiveData>:
 * \param u8_a_DataSize: size of storage buffer
 * 
 * \return en_HSPI_ErrorState_t
 */
void HSPI_ReceiveData(Uchar8_t *pu8_a_data, Uchar8_t u8_a_DataSize)
{
     942:	cf 92       	push	r12
     944:	df 92       	push	r13
     946:	ef 92       	push	r14
     948:	ff 92       	push	r15
     94a:	0f 93       	push	r16
     94c:	1f 93       	push	r17
     94e:	cf 93       	push	r28
     950:	df 93       	push	r29
     952:	1f 92       	push	r1
     954:	cd b7       	in	r28, 0x3d	; 61
     956:	de b7       	in	r29, 0x3e	; 62
     958:	6c 01       	movw	r12, r24
     95a:	06 2f       	mov	r16, r22
	Uchar8_t u8_l_DataIterator = 0, u8_l_dummyVar;

	/* Select Slave */
	DIO_s8SETPinVal(HSPI_SS, LOW);	
     95c:	60 e0       	ldi	r22, 0x00	; 0
     95e:	8c e0       	ldi	r24, 0x0C	; 12
     960:	0e 94 35 09 	call	0x126a	; 0x126a <DIO_s8SETPinVal>

	/* Initiate communication with dummy bit for synchronization */
	SPI_TranscieveChar(DATA_END, &u8_l_dummyVar);
     964:	be 01       	movw	r22, r28
     966:	6f 5f       	subi	r22, 0xFF	; 255
     968:	7f 4f       	sbci	r23, 0xFF	; 255
     96a:	83 e2       	ldi	r24, 0x23	; 35
     96c:	0e 94 d2 0a 	call	0x15a4	; 0x15a4 <SPI_TranscieveChar>
 * 
 * \return en_HSPI_ErrorState_t
 */
void HSPI_ReceiveData(Uchar8_t *pu8_a_data, Uchar8_t u8_a_DataSize)
{
	Uchar8_t u8_l_DataIterator = 0, u8_l_dummyVar;
     970:	10 e0       	ldi	r17, 0x00	; 0
	/* Initiate communication with dummy bit for synchronization */
	SPI_TranscieveChar(DATA_END, &u8_l_dummyVar);
	
	do
	{
		SPI_TranscieveChar(DATA_END, &pu8_a_data[u8_l_DataIterator]);
     972:	76 01       	movw	r14, r12
     974:	e1 0e       	add	r14, r17
     976:	f1 1c       	adc	r15, r1
     978:	b7 01       	movw	r22, r14
     97a:	83 e2       	ldi	r24, 0x23	; 35
     97c:	0e 94 d2 0a 	call	0x15a4	; 0x15a4 <SPI_TranscieveChar>
						
	}while((pu8_a_data[u8_l_DataIterator++]!=DATA_END) && (u8_l_DataIterator < u8_a_DataSize));
     980:	1f 5f       	subi	r17, 0xFF	; 255
     982:	f7 01       	movw	r30, r14
     984:	80 81       	ld	r24, Z
     986:	83 32       	cpi	r24, 0x23	; 35
     988:	11 f0       	breq	.+4      	; 0x98e <HSPI_ReceiveData+0x4c>
     98a:	10 17       	cp	r17, r16
     98c:	90 f3       	brcs	.-28     	; 0x972 <HSPI_ReceiveData+0x30>
	
	/* Deselect Slave */
	DIO_s8SETPinVal(HSPI_SS, HIGH);
     98e:	61 e0       	ldi	r22, 0x01	; 1
     990:	8c e0       	ldi	r24, 0x0C	; 12
     992:	0e 94 35 09 	call	0x126a	; 0x126a <DIO_s8SETPinVal>
}
     996:	0f 90       	pop	r0
     998:	df 91       	pop	r29
     99a:	cf 91       	pop	r28
     99c:	1f 91       	pop	r17
     99e:	0f 91       	pop	r16
     9a0:	ff 90       	pop	r15
     9a2:	ef 90       	pop	r14
     9a4:	df 90       	pop	r13
     9a6:	cf 90       	pop	r12
     9a8:	08 95       	ret

000009aa <HTIM0_SyncDelay>:
     9aa:	8f 92       	push	r8
     9ac:	9f 92       	push	r9
     9ae:	af 92       	push	r10
     9b0:	bf 92       	push	r11
     9b2:	cf 92       	push	r12
     9b4:	df 92       	push	r13
     9b6:	ef 92       	push	r14
     9b8:	ff 92       	push	r15
     9ba:	0f 93       	push	r16
     9bc:	1f 93       	push	r17
     9be:	cf 93       	push	r28
     9c0:	df 93       	push	r29
     9c2:	00 d0       	rcall	.+0      	; 0x9c4 <HTIM0_SyncDelay+0x1a>
     9c4:	cd b7       	in	r28, 0x3d	; 61
     9c6:	de b7       	in	r29, 0x3e	; 62
     9c8:	6b 01       	movw	r12, r22
     9ca:	7c 01       	movw	r14, r24
     9cc:	42 30       	cpi	r20, 0x02	; 2
     9ce:	59 f4       	brne	.+22     	; 0x9e6 <HTIM0_SyncDelay+0x3c>
     9d0:	9b 01       	movw	r18, r22
     9d2:	ac 01       	movw	r20, r24
     9d4:	60 e4       	ldi	r22, 0x40	; 64
     9d6:	72 e4       	ldi	r23, 0x42	; 66
     9d8:	8f e0       	ldi	r24, 0x0F	; 15
     9da:	90 e0       	ldi	r25, 0x00	; 0
     9dc:	0e 94 1a 0f 	call	0x1e34	; 0x1e34 <__mulsi3>
     9e0:	6b 01       	movw	r12, r22
     9e2:	7c 01       	movw	r14, r24
     9e4:	0d c0       	rjmp	.+26     	; 0xa00 <HTIM0_SyncDelay+0x56>
     9e6:	41 30       	cpi	r20, 0x01	; 1
     9e8:	49 f4       	brne	.+18     	; 0x9fc <HTIM0_SyncDelay+0x52>
     9ea:	a8 ee       	ldi	r26, 0xE8	; 232
     9ec:	b3 e0       	ldi	r27, 0x03	; 3
     9ee:	9b 01       	movw	r18, r22
     9f0:	ac 01       	movw	r20, r24
     9f2:	0e 94 4c 0f 	call	0x1e98	; 0x1e98 <__muluhisi3>
     9f6:	6b 01       	movw	r12, r22
     9f8:	7c 01       	movw	r14, r24
     9fa:	02 c0       	rjmp	.+4      	; 0xa00 <HTIM0_SyncDelay+0x56>
     9fc:	41 11       	cpse	r20, r1
     9fe:	6b c0       	rjmp	.+214    	; 0xad6 <HTIM0_SyncDelay+0x12c>
     a00:	88 e8       	ldi	r24, 0x88	; 136
     a02:	c8 16       	cp	r12, r24
     a04:	83 e1       	ldi	r24, 0x13	; 19
     a06:	d8 06       	cpc	r13, r24
     a08:	e1 04       	cpc	r14, r1
     a0a:	f1 04       	cpc	r15, r1
     a0c:	c8 f0       	brcs	.+50     	; 0xa40 <HTIM0_SyncDelay+0x96>
     a0e:	88 ea       	ldi	r24, 0xA8	; 168
     a10:	c8 16       	cp	r12, r24
     a12:	81 e6       	ldi	r24, 0x61	; 97
     a14:	d8 06       	cpc	r13, r24
     a16:	e1 04       	cpc	r14, r1
     a18:	f1 04       	cpc	r15, r1
     a1a:	a0 f0       	brcs	.+40     	; 0xa44 <HTIM0_SyncDelay+0x9a>
     a1c:	88 e4       	ldi	r24, 0x48	; 72
     a1e:	c8 16       	cp	r12, r24
     a20:	88 ee       	ldi	r24, 0xE8	; 232
     a22:	d8 06       	cpc	r13, r24
     a24:	81 e0       	ldi	r24, 0x01	; 1
     a26:	e8 06       	cpc	r14, r24
     a28:	f1 04       	cpc	r15, r1
     a2a:	70 f0       	brcs	.+28     	; 0xa48 <HTIM0_SyncDelay+0x9e>
     a2c:	80 e2       	ldi	r24, 0x20	; 32
     a2e:	c8 16       	cp	r12, r24
     a30:	81 ea       	ldi	r24, 0xA1	; 161
     a32:	d8 06       	cpc	r13, r24
     a34:	87 e0       	ldi	r24, 0x07	; 7
     a36:	e8 06       	cpc	r14, r24
     a38:	f1 04       	cpc	r15, r1
     a3a:	40 f4       	brcc	.+16     	; 0xa4c <HTIM0_SyncDelay+0xa2>
     a3c:	14 e0       	ldi	r17, 0x04	; 4
     a3e:	07 c0       	rjmp	.+14     	; 0xa4e <HTIM0_SyncDelay+0xa4>
     a40:	11 e0       	ldi	r17, 0x01	; 1
     a42:	05 c0       	rjmp	.+10     	; 0xa4e <HTIM0_SyncDelay+0xa4>
     a44:	12 e0       	ldi	r17, 0x02	; 2
     a46:	03 c0       	rjmp	.+6      	; 0xa4e <HTIM0_SyncDelay+0xa4>
     a48:	13 e0       	ldi	r17, 0x03	; 3
     a4a:	01 c0       	rjmp	.+2      	; 0xa4e <HTIM0_SyncDelay+0xa4>
     a4c:	15 e0       	ldi	r17, 0x05	; 5
     a4e:	e1 2f       	mov	r30, r17
     a50:	f0 e0       	ldi	r31, 0x00	; 0
     a52:	31 97       	sbiw	r30, 0x01	; 1
     a54:	ee 0f       	add	r30, r30
     a56:	ff 1f       	adc	r31, r31
     a58:	ee 57       	subi	r30, 0x7E	; 126
     a5a:	fd 4f       	sbci	r31, 0xFD	; 253
     a5c:	60 81       	ld	r22, Z
     a5e:	71 81       	ldd	r23, Z+1	; 0x01
     a60:	76 95       	lsr	r23
     a62:	67 95       	ror	r22
     a64:	76 95       	lsr	r23
     a66:	67 95       	ror	r22
     a68:	76 95       	lsr	r23
     a6a:	67 95       	ror	r22
     a6c:	80 e0       	ldi	r24, 0x00	; 0
     a6e:	90 e0       	ldi	r25, 0x00	; 0
     a70:	0e 94 fb 0d 	call	0x1bf6	; 0x1bf6 <__floatunsisf>
     a74:	4b 01       	movw	r8, r22
     a76:	5c 01       	movw	r10, r24
     a78:	c7 01       	movw	r24, r14
     a7a:	b6 01       	movw	r22, r12
     a7c:	0e 94 fb 0d 	call	0x1bf6	; 0x1bf6 <__floatunsisf>
     a80:	a5 01       	movw	r20, r10
     a82:	94 01       	movw	r18, r8
     a84:	0e 94 5a 0d 	call	0x1ab4	; 0x1ab4 <__divsf3>
     a88:	0e 94 cc 0d 	call	0x1b98	; 0x1b98 <__fixunssfsi>
     a8c:	f6 2e       	mov	r15, r22
     a8e:	07 2f       	mov	r16, r23
     a90:	80 e0       	ldi	r24, 0x00	; 0
     a92:	0e 94 43 0b 	call	0x1686	; 0x1686 <TIM0_voidInit>
     a96:	8f 2d       	mov	r24, r15
     a98:	81 95       	neg	r24
     a9a:	0e 94 74 0b 	call	0x16e8	; 0x16e8 <TIM0_SetValue>
     a9e:	81 2f       	mov	r24, r17
     aa0:	0e 94 5c 0b 	call	0x16b8	; 0x16b8 <TIM0_Start>
     aa4:	10 e0       	ldi	r17, 0x00	; 0
     aa6:	11 c0       	rjmp	.+34     	; 0xaca <HTIM0_SyncDelay+0x120>
     aa8:	ce 01       	movw	r24, r28
     aaa:	01 96       	adiw	r24, 0x01	; 1
     aac:	0e 94 76 0b 	call	0x16ec	; 0x16ec <TIM0_GetOVF>
     ab0:	ce 01       	movw	r24, r28
     ab2:	02 96       	adiw	r24, 0x02	; 2
     ab4:	0e 94 84 0b 	call	0x1708	; 0x1708 <TIM0_GetState>
     ab8:	89 81       	ldd	r24, Y+1	; 0x01
     aba:	81 11       	cpse	r24, r1
     abc:	03 c0       	rjmp	.+6      	; 0xac4 <HTIM0_SyncDelay+0x11a>
     abe:	8a 81       	ldd	r24, Y+2	; 0x02
     ac0:	81 11       	cpse	r24, r1
     ac2:	f2 cf       	rjmp	.-28     	; 0xaa8 <HTIM0_SyncDelay+0xfe>
     ac4:	0e 94 80 0b 	call	0x1700	; 0x1700 <TIM0_ClearOVF>
     ac8:	1f 5f       	subi	r17, 0xFF	; 255
     aca:	01 17       	cp	r16, r17
     acc:	68 f7       	brcc	.-38     	; 0xaa8 <HTIM0_SyncDelay+0xfe>
     ace:	0e 94 6a 0b 	call	0x16d4	; 0x16d4 <TIM0_Stop>
     ad2:	80 e0       	ldi	r24, 0x00	; 0
     ad4:	01 c0       	rjmp	.+2      	; 0xad8 <HTIM0_SyncDelay+0x12e>
     ad6:	81 e0       	ldi	r24, 0x01	; 1
     ad8:	0f 90       	pop	r0
     ada:	0f 90       	pop	r0
     adc:	df 91       	pop	r29
     ade:	cf 91       	pop	r28
     ae0:	1f 91       	pop	r17
     ae2:	0f 91       	pop	r16
     ae4:	ff 90       	pop	r15
     ae6:	ef 90       	pop	r14
     ae8:	df 90       	pop	r13
     aea:	cf 90       	pop	r12
     aec:	bf 90       	pop	r11
     aee:	af 90       	pop	r10
     af0:	9f 90       	pop	r9
     af2:	8f 90       	pop	r8
     af4:	08 95       	ret

00000af6 <HTimer_enInit>:
     af6:	80 e0       	ldi	r24, 0x00	; 0
     af8:	0e 94 d2 0b 	call	0x17a4	; 0x17a4 <enuTimer2_init>
     afc:	84 e0       	ldi	r24, 0x04	; 4
     afe:	0e 94 00 0c 	call	0x1800	; 0x1800 <u8Timer2_setPrescallar>
     b02:	0e 94 14 0c 	call	0x1828	; 0x1828 <vidTimer2_OvfIrqEnable>
     b06:	80 e0       	ldi	r24, 0x00	; 0
     b08:	08 95       	ret

00000b0a <HTimer_vidDelayMs>:
     b0a:	0e 94 2d 0c 	call	0x185a	; 0x185a <u8Timer2_setTime_ms>
     b0e:	0e 94 1c 0c 	call	0x1838	; 0x1838 <vidTimer2_start>
     b12:	08 95       	ret

00000b14 <HTimer_enStop>:
     b14:	0e 94 26 0c 	call	0x184c	; 0x184c <vidTimer2_stop>
     b18:	08 95       	ret

00000b1a <HTimer_enCBF>:
     b1a:	00 97       	sbiw	r24, 0x00	; 0
     b1c:	21 f0       	breq	.+8      	; 0xb26 <HTimer_enCBF+0xc>
     b1e:	0e 94 aa 0c 	call	0x1954	; 0x1954 <vidTimer2_setcbf_OVF>
     b22:	80 e0       	ldi	r24, 0x00	; 0
     b24:	08 95       	ret
     b26:	81 e0       	ldi	r24, 0x01	; 1
     b28:	08 95       	ret

00000b2a <H_EXTINT_create>:
     b2a:	0f 93       	push	r16
     b2c:	1f 93       	push	r17
     b2e:	cf 93       	push	r28
     b30:	c8 2f       	mov	r28, r24
     b32:	8a 01       	movw	r16, r20
     b34:	0e 94 9f 09 	call	0x133e	; 0x133e <EXTINT_init>
     b38:	81 11       	cpse	r24, r1
     b3a:	07 c0       	rjmp	.+14     	; 0xb4a <H_EXTINT_create+0x20>
     b3c:	b8 01       	movw	r22, r16
     b3e:	8c 2f       	mov	r24, r28
     b40:	0e 94 26 0a 	call	0x144c	; 0x144c <EXTINT_CallBack>
     b44:	81 11       	cpse	r24, r1
     b46:	03 c0       	rjmp	.+6      	; 0xb4e <H_EXTINT_create+0x24>
     b48:	03 c0       	rjmp	.+6      	; 0xb50 <H_EXTINT_create+0x26>
     b4a:	81 e0       	ldi	r24, 0x01	; 1
     b4c:	01 c0       	rjmp	.+2      	; 0xb50 <H_EXTINT_create+0x26>
     b4e:	81 e0       	ldi	r24, 0x01	; 1
     b50:	cf 91       	pop	r28
     b52:	1f 91       	pop	r17
     b54:	0f 91       	pop	r16
     b56:	08 95       	ret

00000b58 <KEYPAD_init>:
     b58:	61 e0       	ldi	r22, 0x01	; 1
     b5a:	82 e1       	ldi	r24, 0x12	; 18
     b5c:	0e 94 f5 08 	call	0x11ea	; 0x11ea <DIO_s8SETPinDir>
     b60:	61 e0       	ldi	r22, 0x01	; 1
     b62:	83 e1       	ldi	r24, 0x13	; 19
     b64:	0e 94 f5 08 	call	0x11ea	; 0x11ea <DIO_s8SETPinDir>
     b68:	61 e0       	ldi	r22, 0x01	; 1
     b6a:	84 e1       	ldi	r24, 0x14	; 20
     b6c:	0e 94 f5 08 	call	0x11ea	; 0x11ea <DIO_s8SETPinDir>
     b70:	60 e0       	ldi	r22, 0x00	; 0
     b72:	85 e1       	ldi	r24, 0x15	; 21
     b74:	0e 94 f5 08 	call	0x11ea	; 0x11ea <DIO_s8SETPinDir>
     b78:	60 e0       	ldi	r22, 0x00	; 0
     b7a:	86 e1       	ldi	r24, 0x16	; 22
     b7c:	0e 94 f5 08 	call	0x11ea	; 0x11ea <DIO_s8SETPinDir>
     b80:	60 e0       	ldi	r22, 0x00	; 0
     b82:	87 e1       	ldi	r24, 0x17	; 23
     b84:	0e 94 f5 08 	call	0x11ea	; 0x11ea <DIO_s8SETPinDir>
     b88:	08 95       	ret

00000b8a <checkR1>:
     b8a:	cf 93       	push	r28
     b8c:	df 93       	push	r29
     b8e:	1f 92       	push	r1
     b90:	cd b7       	in	r28, 0x3d	; 61
     b92:	de b7       	in	r29, 0x3e	; 62
     b94:	61 e0       	ldi	r22, 0x01	; 1
     b96:	85 e1       	ldi	r24, 0x15	; 21
     b98:	0e 94 35 09 	call	0x126a	; 0x126a <DIO_s8SETPinVal>
     b9c:	61 e0       	ldi	r22, 0x01	; 1
     b9e:	86 e1       	ldi	r24, 0x16	; 22
     ba0:	0e 94 35 09 	call	0x126a	; 0x126a <DIO_s8SETPinVal>
     ba4:	61 e0       	ldi	r22, 0x01	; 1
     ba6:	87 e1       	ldi	r24, 0x17	; 23
     ba8:	0e 94 35 09 	call	0x126a	; 0x126a <DIO_s8SETPinVal>
     bac:	61 e0       	ldi	r22, 0x01	; 1
     bae:	83 e1       	ldi	r24, 0x13	; 19
     bb0:	0e 94 35 09 	call	0x126a	; 0x126a <DIO_s8SETPinVal>
     bb4:	61 e0       	ldi	r22, 0x01	; 1
     bb6:	84 e1       	ldi	r24, 0x14	; 20
     bb8:	0e 94 35 09 	call	0x126a	; 0x126a <DIO_s8SETPinVal>
     bbc:	60 e0       	ldi	r22, 0x00	; 0
     bbe:	82 e1       	ldi	r24, 0x12	; 18
     bc0:	0e 94 35 09 	call	0x126a	; 0x126a <DIO_s8SETPinVal>
     bc4:	81 e0       	ldi	r24, 0x01	; 1
     bc6:	89 83       	std	Y+1, r24	; 0x01
     bc8:	be 01       	movw	r22, r28
     bca:	6f 5f       	subi	r22, 0xFF	; 255
     bcc:	7f 4f       	sbci	r23, 0xFF	; 255
     bce:	85 e1       	ldi	r24, 0x15	; 21
     bd0:	0e 94 75 09 	call	0x12ea	; 0x12ea <DIO_s8GETPinVal>
     bd4:	89 81       	ldd	r24, Y+1	; 0x01
     bd6:	88 23       	and	r24, r24
     bd8:	39 f0       	breq	.+14     	; 0xbe8 <checkR1+0x5e>
     bda:	0b c0       	rjmp	.+22     	; 0xbf2 <checkR1+0x68>
     bdc:	be 01       	movw	r22, r28
     bde:	6f 5f       	subi	r22, 0xFF	; 255
     be0:	7f 4f       	sbci	r23, 0xFF	; 255
     be2:	85 e1       	ldi	r24, 0x15	; 21
     be4:	0e 94 75 09 	call	0x12ea	; 0x12ea <DIO_s8GETPinVal>
     be8:	89 81       	ldd	r24, Y+1	; 0x01
     bea:	88 23       	and	r24, r24
     bec:	b9 f3       	breq	.-18     	; 0xbdc <checkR1+0x52>
     bee:	81 e0       	ldi	r24, 0x01	; 1
     bf0:	2e c0       	rjmp	.+92     	; 0xc4e <checkR1+0xc4>
     bf2:	81 e0       	ldi	r24, 0x01	; 1
     bf4:	89 83       	std	Y+1, r24	; 0x01
     bf6:	be 01       	movw	r22, r28
     bf8:	6f 5f       	subi	r22, 0xFF	; 255
     bfa:	7f 4f       	sbci	r23, 0xFF	; 255
     bfc:	86 e1       	ldi	r24, 0x16	; 22
     bfe:	0e 94 75 09 	call	0x12ea	; 0x12ea <DIO_s8GETPinVal>
     c02:	89 81       	ldd	r24, Y+1	; 0x01
     c04:	88 23       	and	r24, r24
     c06:	39 f0       	breq	.+14     	; 0xc16 <checkR1+0x8c>
     c08:	0b c0       	rjmp	.+22     	; 0xc20 <checkR1+0x96>
     c0a:	be 01       	movw	r22, r28
     c0c:	6f 5f       	subi	r22, 0xFF	; 255
     c0e:	7f 4f       	sbci	r23, 0xFF	; 255
     c10:	86 e1       	ldi	r24, 0x16	; 22
     c12:	0e 94 75 09 	call	0x12ea	; 0x12ea <DIO_s8GETPinVal>
     c16:	89 81       	ldd	r24, Y+1	; 0x01
     c18:	88 23       	and	r24, r24
     c1a:	b9 f3       	breq	.-18     	; 0xc0a <checkR1+0x80>
     c1c:	82 e0       	ldi	r24, 0x02	; 2
     c1e:	17 c0       	rjmp	.+46     	; 0xc4e <checkR1+0xc4>
     c20:	81 e0       	ldi	r24, 0x01	; 1
     c22:	89 83       	std	Y+1, r24	; 0x01
     c24:	be 01       	movw	r22, r28
     c26:	6f 5f       	subi	r22, 0xFF	; 255
     c28:	7f 4f       	sbci	r23, 0xFF	; 255
     c2a:	87 e1       	ldi	r24, 0x17	; 23
     c2c:	0e 94 75 09 	call	0x12ea	; 0x12ea <DIO_s8GETPinVal>
     c30:	89 81       	ldd	r24, Y+1	; 0x01
     c32:	88 23       	and	r24, r24
     c34:	41 f0       	breq	.+16     	; 0xc46 <checkR1+0xbc>
     c36:	80 e0       	ldi	r24, 0x00	; 0
     c38:	0a c0       	rjmp	.+20     	; 0xc4e <checkR1+0xc4>
     c3a:	be 01       	movw	r22, r28
     c3c:	6f 5f       	subi	r22, 0xFF	; 255
     c3e:	7f 4f       	sbci	r23, 0xFF	; 255
     c40:	87 e1       	ldi	r24, 0x17	; 23
     c42:	0e 94 75 09 	call	0x12ea	; 0x12ea <DIO_s8GETPinVal>
     c46:	89 81       	ldd	r24, Y+1	; 0x01
     c48:	88 23       	and	r24, r24
     c4a:	b9 f3       	breq	.-18     	; 0xc3a <checkR1+0xb0>
     c4c:	83 e0       	ldi	r24, 0x03	; 3
     c4e:	0f 90       	pop	r0
     c50:	df 91       	pop	r29
     c52:	cf 91       	pop	r28
     c54:	08 95       	ret

00000c56 <checkR2>:
     c56:	cf 93       	push	r28
     c58:	df 93       	push	r29
     c5a:	1f 92       	push	r1
     c5c:	cd b7       	in	r28, 0x3d	; 61
     c5e:	de b7       	in	r29, 0x3e	; 62
     c60:	61 e0       	ldi	r22, 0x01	; 1
     c62:	85 e1       	ldi	r24, 0x15	; 21
     c64:	0e 94 35 09 	call	0x126a	; 0x126a <DIO_s8SETPinVal>
     c68:	61 e0       	ldi	r22, 0x01	; 1
     c6a:	86 e1       	ldi	r24, 0x16	; 22
     c6c:	0e 94 35 09 	call	0x126a	; 0x126a <DIO_s8SETPinVal>
     c70:	61 e0       	ldi	r22, 0x01	; 1
     c72:	87 e1       	ldi	r24, 0x17	; 23
     c74:	0e 94 35 09 	call	0x126a	; 0x126a <DIO_s8SETPinVal>
     c78:	61 e0       	ldi	r22, 0x01	; 1
     c7a:	82 e1       	ldi	r24, 0x12	; 18
     c7c:	0e 94 35 09 	call	0x126a	; 0x126a <DIO_s8SETPinVal>
     c80:	61 e0       	ldi	r22, 0x01	; 1
     c82:	84 e1       	ldi	r24, 0x14	; 20
     c84:	0e 94 35 09 	call	0x126a	; 0x126a <DIO_s8SETPinVal>
     c88:	60 e0       	ldi	r22, 0x00	; 0
     c8a:	83 e1       	ldi	r24, 0x13	; 19
     c8c:	0e 94 35 09 	call	0x126a	; 0x126a <DIO_s8SETPinVal>
     c90:	81 e0       	ldi	r24, 0x01	; 1
     c92:	89 83       	std	Y+1, r24	; 0x01
     c94:	be 01       	movw	r22, r28
     c96:	6f 5f       	subi	r22, 0xFF	; 255
     c98:	7f 4f       	sbci	r23, 0xFF	; 255
     c9a:	85 e1       	ldi	r24, 0x15	; 21
     c9c:	0e 94 75 09 	call	0x12ea	; 0x12ea <DIO_s8GETPinVal>
     ca0:	89 81       	ldd	r24, Y+1	; 0x01
     ca2:	88 23       	and	r24, r24
     ca4:	39 f0       	breq	.+14     	; 0xcb4 <checkR2+0x5e>
     ca6:	0b c0       	rjmp	.+22     	; 0xcbe <checkR2+0x68>
     ca8:	be 01       	movw	r22, r28
     caa:	6f 5f       	subi	r22, 0xFF	; 255
     cac:	7f 4f       	sbci	r23, 0xFF	; 255
     cae:	85 e1       	ldi	r24, 0x15	; 21
     cb0:	0e 94 75 09 	call	0x12ea	; 0x12ea <DIO_s8GETPinVal>
     cb4:	89 81       	ldd	r24, Y+1	; 0x01
     cb6:	88 23       	and	r24, r24
     cb8:	b9 f3       	breq	.-18     	; 0xca8 <checkR2+0x52>
     cba:	84 e0       	ldi	r24, 0x04	; 4
     cbc:	2e c0       	rjmp	.+92     	; 0xd1a <checkR2+0xc4>
     cbe:	81 e0       	ldi	r24, 0x01	; 1
     cc0:	89 83       	std	Y+1, r24	; 0x01
     cc2:	be 01       	movw	r22, r28
     cc4:	6f 5f       	subi	r22, 0xFF	; 255
     cc6:	7f 4f       	sbci	r23, 0xFF	; 255
     cc8:	86 e1       	ldi	r24, 0x16	; 22
     cca:	0e 94 75 09 	call	0x12ea	; 0x12ea <DIO_s8GETPinVal>
     cce:	89 81       	ldd	r24, Y+1	; 0x01
     cd0:	88 23       	and	r24, r24
     cd2:	39 f0       	breq	.+14     	; 0xce2 <checkR2+0x8c>
     cd4:	0b c0       	rjmp	.+22     	; 0xcec <checkR2+0x96>
     cd6:	be 01       	movw	r22, r28
     cd8:	6f 5f       	subi	r22, 0xFF	; 255
     cda:	7f 4f       	sbci	r23, 0xFF	; 255
     cdc:	86 e1       	ldi	r24, 0x16	; 22
     cde:	0e 94 75 09 	call	0x12ea	; 0x12ea <DIO_s8GETPinVal>
     ce2:	89 81       	ldd	r24, Y+1	; 0x01
     ce4:	88 23       	and	r24, r24
     ce6:	b9 f3       	breq	.-18     	; 0xcd6 <checkR2+0x80>
     ce8:	85 e0       	ldi	r24, 0x05	; 5
     cea:	17 c0       	rjmp	.+46     	; 0xd1a <checkR2+0xc4>
     cec:	81 e0       	ldi	r24, 0x01	; 1
     cee:	89 83       	std	Y+1, r24	; 0x01
     cf0:	be 01       	movw	r22, r28
     cf2:	6f 5f       	subi	r22, 0xFF	; 255
     cf4:	7f 4f       	sbci	r23, 0xFF	; 255
     cf6:	87 e1       	ldi	r24, 0x17	; 23
     cf8:	0e 94 75 09 	call	0x12ea	; 0x12ea <DIO_s8GETPinVal>
     cfc:	89 81       	ldd	r24, Y+1	; 0x01
     cfe:	88 23       	and	r24, r24
     d00:	41 f0       	breq	.+16     	; 0xd12 <checkR2+0xbc>
     d02:	80 e0       	ldi	r24, 0x00	; 0
     d04:	0a c0       	rjmp	.+20     	; 0xd1a <checkR2+0xc4>
     d06:	be 01       	movw	r22, r28
     d08:	6f 5f       	subi	r22, 0xFF	; 255
     d0a:	7f 4f       	sbci	r23, 0xFF	; 255
     d0c:	87 e1       	ldi	r24, 0x17	; 23
     d0e:	0e 94 75 09 	call	0x12ea	; 0x12ea <DIO_s8GETPinVal>
     d12:	89 81       	ldd	r24, Y+1	; 0x01
     d14:	88 23       	and	r24, r24
     d16:	b9 f3       	breq	.-18     	; 0xd06 <checkR2+0xb0>
     d18:	86 e0       	ldi	r24, 0x06	; 6
     d1a:	0f 90       	pop	r0
     d1c:	df 91       	pop	r29
     d1e:	cf 91       	pop	r28
     d20:	08 95       	ret

00000d22 <checkR3>:
     d22:	cf 93       	push	r28
     d24:	df 93       	push	r29
     d26:	1f 92       	push	r1
     d28:	cd b7       	in	r28, 0x3d	; 61
     d2a:	de b7       	in	r29, 0x3e	; 62
     d2c:	61 e0       	ldi	r22, 0x01	; 1
     d2e:	85 e1       	ldi	r24, 0x15	; 21
     d30:	0e 94 35 09 	call	0x126a	; 0x126a <DIO_s8SETPinVal>
     d34:	61 e0       	ldi	r22, 0x01	; 1
     d36:	86 e1       	ldi	r24, 0x16	; 22
     d38:	0e 94 35 09 	call	0x126a	; 0x126a <DIO_s8SETPinVal>
     d3c:	61 e0       	ldi	r22, 0x01	; 1
     d3e:	87 e1       	ldi	r24, 0x17	; 23
     d40:	0e 94 35 09 	call	0x126a	; 0x126a <DIO_s8SETPinVal>
     d44:	61 e0       	ldi	r22, 0x01	; 1
     d46:	82 e1       	ldi	r24, 0x12	; 18
     d48:	0e 94 35 09 	call	0x126a	; 0x126a <DIO_s8SETPinVal>
     d4c:	61 e0       	ldi	r22, 0x01	; 1
     d4e:	83 e1       	ldi	r24, 0x13	; 19
     d50:	0e 94 35 09 	call	0x126a	; 0x126a <DIO_s8SETPinVal>
     d54:	60 e0       	ldi	r22, 0x00	; 0
     d56:	84 e1       	ldi	r24, 0x14	; 20
     d58:	0e 94 35 09 	call	0x126a	; 0x126a <DIO_s8SETPinVal>
     d5c:	81 e0       	ldi	r24, 0x01	; 1
     d5e:	89 83       	std	Y+1, r24	; 0x01
     d60:	be 01       	movw	r22, r28
     d62:	6f 5f       	subi	r22, 0xFF	; 255
     d64:	7f 4f       	sbci	r23, 0xFF	; 255
     d66:	85 e1       	ldi	r24, 0x15	; 21
     d68:	0e 94 75 09 	call	0x12ea	; 0x12ea <DIO_s8GETPinVal>
     d6c:	89 81       	ldd	r24, Y+1	; 0x01
     d6e:	88 23       	and	r24, r24
     d70:	39 f0       	breq	.+14     	; 0xd80 <checkR3+0x5e>
     d72:	0b c0       	rjmp	.+22     	; 0xd8a <checkR3+0x68>
     d74:	be 01       	movw	r22, r28
     d76:	6f 5f       	subi	r22, 0xFF	; 255
     d78:	7f 4f       	sbci	r23, 0xFF	; 255
     d7a:	85 e1       	ldi	r24, 0x15	; 21
     d7c:	0e 94 75 09 	call	0x12ea	; 0x12ea <DIO_s8GETPinVal>
     d80:	89 81       	ldd	r24, Y+1	; 0x01
     d82:	88 23       	and	r24, r24
     d84:	b9 f3       	breq	.-18     	; 0xd74 <checkR3+0x52>
     d86:	87 e0       	ldi	r24, 0x07	; 7
     d88:	2e c0       	rjmp	.+92     	; 0xde6 <checkR3+0xc4>
     d8a:	81 e0       	ldi	r24, 0x01	; 1
     d8c:	89 83       	std	Y+1, r24	; 0x01
     d8e:	be 01       	movw	r22, r28
     d90:	6f 5f       	subi	r22, 0xFF	; 255
     d92:	7f 4f       	sbci	r23, 0xFF	; 255
     d94:	86 e1       	ldi	r24, 0x16	; 22
     d96:	0e 94 75 09 	call	0x12ea	; 0x12ea <DIO_s8GETPinVal>
     d9a:	89 81       	ldd	r24, Y+1	; 0x01
     d9c:	88 23       	and	r24, r24
     d9e:	39 f0       	breq	.+14     	; 0xdae <checkR3+0x8c>
     da0:	0b c0       	rjmp	.+22     	; 0xdb8 <checkR3+0x96>
     da2:	be 01       	movw	r22, r28
     da4:	6f 5f       	subi	r22, 0xFF	; 255
     da6:	7f 4f       	sbci	r23, 0xFF	; 255
     da8:	86 e1       	ldi	r24, 0x16	; 22
     daa:	0e 94 75 09 	call	0x12ea	; 0x12ea <DIO_s8GETPinVal>
     dae:	89 81       	ldd	r24, Y+1	; 0x01
     db0:	88 23       	and	r24, r24
     db2:	b9 f3       	breq	.-18     	; 0xda2 <checkR3+0x80>
     db4:	88 e0       	ldi	r24, 0x08	; 8
     db6:	17 c0       	rjmp	.+46     	; 0xde6 <checkR3+0xc4>
     db8:	81 e0       	ldi	r24, 0x01	; 1
     dba:	89 83       	std	Y+1, r24	; 0x01
     dbc:	be 01       	movw	r22, r28
     dbe:	6f 5f       	subi	r22, 0xFF	; 255
     dc0:	7f 4f       	sbci	r23, 0xFF	; 255
     dc2:	87 e1       	ldi	r24, 0x17	; 23
     dc4:	0e 94 75 09 	call	0x12ea	; 0x12ea <DIO_s8GETPinVal>
     dc8:	89 81       	ldd	r24, Y+1	; 0x01
     dca:	88 23       	and	r24, r24
     dcc:	41 f0       	breq	.+16     	; 0xdde <checkR3+0xbc>
     dce:	80 e0       	ldi	r24, 0x00	; 0
     dd0:	0a c0       	rjmp	.+20     	; 0xde6 <checkR3+0xc4>
     dd2:	be 01       	movw	r22, r28
     dd4:	6f 5f       	subi	r22, 0xFF	; 255
     dd6:	7f 4f       	sbci	r23, 0xFF	; 255
     dd8:	87 e1       	ldi	r24, 0x17	; 23
     dda:	0e 94 75 09 	call	0x12ea	; 0x12ea <DIO_s8GETPinVal>
     dde:	89 81       	ldd	r24, Y+1	; 0x01
     de0:	88 23       	and	r24, r24
     de2:	b9 f3       	breq	.-18     	; 0xdd2 <checkR3+0xb0>
     de4:	89 e0       	ldi	r24, 0x09	; 9
     de6:	0f 90       	pop	r0
     de8:	df 91       	pop	r29
     dea:	cf 91       	pop	r28
     dec:	08 95       	ret

00000dee <KEYPAD_GetButton>:
     dee:	0e 94 c5 05 	call	0xb8a	; 0xb8a <checkR1>
     df2:	81 11       	cpse	r24, r1
     df4:	06 c0       	rjmp	.+12     	; 0xe02 <KEYPAD_GetButton+0x14>
     df6:	0e 94 2b 06 	call	0xc56	; 0xc56 <checkR2>
     dfa:	81 11       	cpse	r24, r1
     dfc:	02 c0       	rjmp	.+4      	; 0xe02 <KEYPAD_GetButton+0x14>
     dfe:	0e 94 91 06 	call	0xd22	; 0xd22 <checkR3>
     e02:	08 95       	ret

00000e04 <HLCD_vidWritecmd>:
     e04:	1f 93       	push	r17
     e06:	cf 93       	push	r28
     e08:	df 93       	push	r29
     e0a:	d8 2f       	mov	r29, r24
     e0c:	60 e0       	ldi	r22, 0x00	; 0
     e0e:	82 e0       	ldi	r24, 0x02	; 2
     e10:	0e 94 35 09 	call	0x126a	; 0x126a <DIO_s8SETPinVal>
     e14:	60 e0       	ldi	r22, 0x00	; 0
     e16:	81 e0       	ldi	r24, 0x01	; 1
     e18:	0e 94 35 09 	call	0x126a	; 0x126a <DIO_s8SETPinVal>
     e1c:	1d 2f       	mov	r17, r29
     e1e:	12 95       	swap	r17
     e20:	1f 70       	andi	r17, 0x0F	; 15
     e22:	c0 e0       	ldi	r28, 0x00	; 0
     e24:	11 c0       	rjmp	.+34     	; 0xe48 <HLCD_vidWritecmd+0x44>
     e26:	ec 2f       	mov	r30, r28
     e28:	f0 e0       	ldi	r31, 0x00	; 0
     e2a:	61 2f       	mov	r22, r17
     e2c:	70 e0       	ldi	r23, 0x00	; 0
     e2e:	0c 2e       	mov	r0, r28
     e30:	02 c0       	rjmp	.+4      	; 0xe36 <HLCD_vidWritecmd+0x32>
     e32:	75 95       	asr	r23
     e34:	67 95       	ror	r22
     e36:	0a 94       	dec	r0
     e38:	e2 f7       	brpl	.-8      	; 0xe32 <HLCD_vidWritecmd+0x2e>
     e3a:	61 70       	andi	r22, 0x01	; 1
     e3c:	e2 59       	subi	r30, 0x92	; 146
     e3e:	fe 4f       	sbci	r31, 0xFE	; 254
     e40:	80 81       	ld	r24, Z
     e42:	0e 94 35 09 	call	0x126a	; 0x126a <DIO_s8SETPinVal>
     e46:	cf 5f       	subi	r28, 0xFF	; 255
     e48:	c4 30       	cpi	r28, 0x04	; 4
     e4a:	68 f3       	brcs	.-38     	; 0xe26 <HLCD_vidWritecmd+0x22>
     e4c:	61 e0       	ldi	r22, 0x01	; 1
     e4e:	83 e0       	ldi	r24, 0x03	; 3
     e50:	0e 94 35 09 	call	0x126a	; 0x126a <DIO_s8SETPinVal>
     e54:	89 ef       	ldi	r24, 0xF9	; 249
     e56:	90 e0       	ldi	r25, 0x00	; 0
     e58:	01 97       	sbiw	r24, 0x01	; 1
     e5a:	f1 f7       	brne	.-4      	; 0xe58 <HLCD_vidWritecmd+0x54>
     e5c:	00 c0       	rjmp	.+0      	; 0xe5e <HLCD_vidWritecmd+0x5a>
     e5e:	00 00       	nop
     e60:	60 e0       	ldi	r22, 0x00	; 0
     e62:	83 e0       	ldi	r24, 0x03	; 3
     e64:	0e 94 35 09 	call	0x126a	; 0x126a <DIO_s8SETPinVal>
     e68:	92 e4       	ldi	r25, 0x42	; 66
     e6a:	9a 95       	dec	r25
     e6c:	f1 f7       	brne	.-4      	; 0xe6a <HLCD_vidWritecmd+0x66>
     e6e:	00 c0       	rjmp	.+0      	; 0xe70 <HLCD_vidWritecmd+0x6c>
     e70:	df 70       	andi	r29, 0x0F	; 15
     e72:	c0 e0       	ldi	r28, 0x00	; 0
     e74:	11 c0       	rjmp	.+34     	; 0xe98 <HLCD_vidWritecmd+0x94>
     e76:	ec 2f       	mov	r30, r28
     e78:	f0 e0       	ldi	r31, 0x00	; 0
     e7a:	6d 2f       	mov	r22, r29
     e7c:	70 e0       	ldi	r23, 0x00	; 0
     e7e:	0c 2e       	mov	r0, r28
     e80:	02 c0       	rjmp	.+4      	; 0xe86 <HLCD_vidWritecmd+0x82>
     e82:	75 95       	asr	r23
     e84:	67 95       	ror	r22
     e86:	0a 94       	dec	r0
     e88:	e2 f7       	brpl	.-8      	; 0xe82 <HLCD_vidWritecmd+0x7e>
     e8a:	61 70       	andi	r22, 0x01	; 1
     e8c:	e2 59       	subi	r30, 0x92	; 146
     e8e:	fe 4f       	sbci	r31, 0xFE	; 254
     e90:	80 81       	ld	r24, Z
     e92:	0e 94 35 09 	call	0x126a	; 0x126a <DIO_s8SETPinVal>
     e96:	cf 5f       	subi	r28, 0xFF	; 255
     e98:	c4 30       	cpi	r28, 0x04	; 4
     e9a:	68 f3       	brcs	.-38     	; 0xe76 <HLCD_vidWritecmd+0x72>
     e9c:	61 e0       	ldi	r22, 0x01	; 1
     e9e:	83 e0       	ldi	r24, 0x03	; 3
     ea0:	0e 94 35 09 	call	0x126a	; 0x126a <DIO_s8SETPinVal>
     ea4:	89 ef       	ldi	r24, 0xF9	; 249
     ea6:	90 e0       	ldi	r25, 0x00	; 0
     ea8:	01 97       	sbiw	r24, 0x01	; 1
     eaa:	f1 f7       	brne	.-4      	; 0xea8 <HLCD_vidWritecmd+0xa4>
     eac:	00 c0       	rjmp	.+0      	; 0xeae <HLCD_vidWritecmd+0xaa>
     eae:	00 00       	nop
     eb0:	60 e0       	ldi	r22, 0x00	; 0
     eb2:	83 e0       	ldi	r24, 0x03	; 3
     eb4:	0e 94 35 09 	call	0x126a	; 0x126a <DIO_s8SETPinVal>
     eb8:	83 ef       	ldi	r24, 0xF3	; 243
     eba:	91 e0       	ldi	r25, 0x01	; 1
     ebc:	01 97       	sbiw	r24, 0x01	; 1
     ebe:	f1 f7       	brne	.-4      	; 0xebc <HLCD_vidWritecmd+0xb8>
     ec0:	00 c0       	rjmp	.+0      	; 0xec2 <HLCD_vidWritecmd+0xbe>
     ec2:	00 00       	nop
     ec4:	df 91       	pop	r29
     ec6:	cf 91       	pop	r28
     ec8:	1f 91       	pop	r17
     eca:	08 95       	ret

00000ecc <HLCD_vidInit>:
     ecc:	cf 93       	push	r28
     ece:	c0 e0       	ldi	r28, 0x00	; 0
     ed0:	09 c0       	rjmp	.+18     	; 0xee4 <HLCD_vidInit+0x18>
     ed2:	ec 2f       	mov	r30, r28
     ed4:	f0 e0       	ldi	r31, 0x00	; 0
     ed6:	e2 59       	subi	r30, 0x92	; 146
     ed8:	fe 4f       	sbci	r31, 0xFE	; 254
     eda:	61 e0       	ldi	r22, 0x01	; 1
     edc:	80 81       	ld	r24, Z
     ede:	0e 94 f5 08 	call	0x11ea	; 0x11ea <DIO_s8SETPinDir>
     ee2:	cf 5f       	subi	r28, 0xFF	; 255
     ee4:	c4 30       	cpi	r28, 0x04	; 4
     ee6:	a8 f3       	brcs	.-22     	; 0xed2 <HLCD_vidInit+0x6>
     ee8:	61 e0       	ldi	r22, 0x01	; 1
     eea:	81 e0       	ldi	r24, 0x01	; 1
     eec:	0e 94 f5 08 	call	0x11ea	; 0x11ea <DIO_s8SETPinDir>
     ef0:	61 e0       	ldi	r22, 0x01	; 1
     ef2:	82 e0       	ldi	r24, 0x02	; 2
     ef4:	0e 94 f5 08 	call	0x11ea	; 0x11ea <DIO_s8SETPinDir>
     ef8:	61 e0       	ldi	r22, 0x01	; 1
     efa:	83 e0       	ldi	r24, 0x03	; 3
     efc:	0e 94 f5 08 	call	0x11ea	; 0x11ea <DIO_s8SETPinDir>
     f00:	8f e0       	ldi	r24, 0x0F	; 15
     f02:	97 e2       	ldi	r25, 0x27	; 39
     f04:	01 97       	sbiw	r24, 0x01	; 1
     f06:	f1 f7       	brne	.-4      	; 0xf04 <HLCD_vidInit+0x38>
     f08:	00 c0       	rjmp	.+0      	; 0xf0a <HLCD_vidInit+0x3e>
     f0a:	00 00       	nop
     f0c:	82 e0       	ldi	r24, 0x02	; 2
     f0e:	0e 94 02 07 	call	0xe04	; 0xe04 <HLCD_vidWritecmd>
     f12:	89 ef       	ldi	r24, 0xF9	; 249
     f14:	90 e0       	ldi	r25, 0x00	; 0
     f16:	01 97       	sbiw	r24, 0x01	; 1
     f18:	f1 f7       	brne	.-4      	; 0xf16 <HLCD_vidInit+0x4a>
     f1a:	00 c0       	rjmp	.+0      	; 0xf1c <HLCD_vidInit+0x50>
     f1c:	00 00       	nop
     f1e:	88 e2       	ldi	r24, 0x28	; 40
     f20:	0e 94 02 07 	call	0xe04	; 0xe04 <HLCD_vidWritecmd>
     f24:	89 ef       	ldi	r24, 0xF9	; 249
     f26:	90 e0       	ldi	r25, 0x00	; 0
     f28:	01 97       	sbiw	r24, 0x01	; 1
     f2a:	f1 f7       	brne	.-4      	; 0xf28 <HLCD_vidInit+0x5c>
     f2c:	00 c0       	rjmp	.+0      	; 0xf2e <HLCD_vidInit+0x62>
     f2e:	00 00       	nop
     f30:	81 e0       	ldi	r24, 0x01	; 1
     f32:	0e 94 02 07 	call	0xe04	; 0xe04 <HLCD_vidWritecmd>
     f36:	87 ee       	ldi	r24, 0xE7	; 231
     f38:	93 e0       	ldi	r25, 0x03	; 3
     f3a:	01 97       	sbiw	r24, 0x01	; 1
     f3c:	f1 f7       	brne	.-4      	; 0xf3a <HLCD_vidInit+0x6e>
     f3e:	00 c0       	rjmp	.+0      	; 0xf40 <HLCD_vidInit+0x74>
     f40:	00 00       	nop
     f42:	86 e0       	ldi	r24, 0x06	; 6
     f44:	0e 94 02 07 	call	0xe04	; 0xe04 <HLCD_vidWritecmd>
     f48:	89 ef       	ldi	r24, 0xF9	; 249
     f4a:	90 e0       	ldi	r25, 0x00	; 0
     f4c:	01 97       	sbiw	r24, 0x01	; 1
     f4e:	f1 f7       	brne	.-4      	; 0xf4c <HLCD_vidInit+0x80>
     f50:	00 c0       	rjmp	.+0      	; 0xf52 <HLCD_vidInit+0x86>
     f52:	00 00       	nop
     f54:	8e e0       	ldi	r24, 0x0E	; 14
     f56:	0e 94 02 07 	call	0xe04	; 0xe04 <HLCD_vidWritecmd>
     f5a:	89 ef       	ldi	r24, 0xF9	; 249
     f5c:	90 e0       	ldi	r25, 0x00	; 0
     f5e:	01 97       	sbiw	r24, 0x01	; 1
     f60:	f1 f7       	brne	.-4      	; 0xf5e <HLCD_vidInit+0x92>
     f62:	00 c0       	rjmp	.+0      	; 0xf64 <HLCD_vidInit+0x98>
     f64:	00 00       	nop
     f66:	cf 91       	pop	r28
     f68:	08 95       	ret

00000f6a <HLCD_vidWriteChar>:
     f6a:	1f 93       	push	r17
     f6c:	cf 93       	push	r28
     f6e:	df 93       	push	r29
     f70:	d8 2f       	mov	r29, r24
     f72:	60 e0       	ldi	r22, 0x00	; 0
     f74:	82 e0       	ldi	r24, 0x02	; 2
     f76:	0e 94 35 09 	call	0x126a	; 0x126a <DIO_s8SETPinVal>
     f7a:	61 e0       	ldi	r22, 0x01	; 1
     f7c:	81 e0       	ldi	r24, 0x01	; 1
     f7e:	0e 94 35 09 	call	0x126a	; 0x126a <DIO_s8SETPinVal>
     f82:	1d 2f       	mov	r17, r29
     f84:	12 95       	swap	r17
     f86:	1f 70       	andi	r17, 0x0F	; 15
     f88:	c0 e0       	ldi	r28, 0x00	; 0
     f8a:	11 c0       	rjmp	.+34     	; 0xfae <HLCD_vidWriteChar+0x44>
     f8c:	ec 2f       	mov	r30, r28
     f8e:	f0 e0       	ldi	r31, 0x00	; 0
     f90:	61 2f       	mov	r22, r17
     f92:	70 e0       	ldi	r23, 0x00	; 0
     f94:	0c 2e       	mov	r0, r28
     f96:	02 c0       	rjmp	.+4      	; 0xf9c <HLCD_vidWriteChar+0x32>
     f98:	75 95       	asr	r23
     f9a:	67 95       	ror	r22
     f9c:	0a 94       	dec	r0
     f9e:	e2 f7       	brpl	.-8      	; 0xf98 <HLCD_vidWriteChar+0x2e>
     fa0:	61 70       	andi	r22, 0x01	; 1
     fa2:	e2 59       	subi	r30, 0x92	; 146
     fa4:	fe 4f       	sbci	r31, 0xFE	; 254
     fa6:	80 81       	ld	r24, Z
     fa8:	0e 94 35 09 	call	0x126a	; 0x126a <DIO_s8SETPinVal>
     fac:	cf 5f       	subi	r28, 0xFF	; 255
     fae:	c4 30       	cpi	r28, 0x04	; 4
     fb0:	68 f3       	brcs	.-38     	; 0xf8c <HLCD_vidWriteChar+0x22>
     fb2:	61 e0       	ldi	r22, 0x01	; 1
     fb4:	83 e0       	ldi	r24, 0x03	; 3
     fb6:	0e 94 35 09 	call	0x126a	; 0x126a <DIO_s8SETPinVal>
     fba:	89 ef       	ldi	r24, 0xF9	; 249
     fbc:	90 e0       	ldi	r25, 0x00	; 0
     fbe:	01 97       	sbiw	r24, 0x01	; 1
     fc0:	f1 f7       	brne	.-4      	; 0xfbe <HLCD_vidWriteChar+0x54>
     fc2:	00 c0       	rjmp	.+0      	; 0xfc4 <HLCD_vidWriteChar+0x5a>
     fc4:	00 00       	nop
     fc6:	60 e0       	ldi	r22, 0x00	; 0
     fc8:	83 e0       	ldi	r24, 0x03	; 3
     fca:	0e 94 35 09 	call	0x126a	; 0x126a <DIO_s8SETPinVal>
     fce:	92 e4       	ldi	r25, 0x42	; 66
     fd0:	9a 95       	dec	r25
     fd2:	f1 f7       	brne	.-4      	; 0xfd0 <HLCD_vidWriteChar+0x66>
     fd4:	00 c0       	rjmp	.+0      	; 0xfd6 <HLCD_vidWriteChar+0x6c>
     fd6:	df 70       	andi	r29, 0x0F	; 15
     fd8:	c0 e0       	ldi	r28, 0x00	; 0
     fda:	11 c0       	rjmp	.+34     	; 0xffe <HLCD_vidWriteChar+0x94>
     fdc:	ec 2f       	mov	r30, r28
     fde:	f0 e0       	ldi	r31, 0x00	; 0
     fe0:	6d 2f       	mov	r22, r29
     fe2:	70 e0       	ldi	r23, 0x00	; 0
     fe4:	0c 2e       	mov	r0, r28
     fe6:	02 c0       	rjmp	.+4      	; 0xfec <HLCD_vidWriteChar+0x82>
     fe8:	75 95       	asr	r23
     fea:	67 95       	ror	r22
     fec:	0a 94       	dec	r0
     fee:	e2 f7       	brpl	.-8      	; 0xfe8 <HLCD_vidWriteChar+0x7e>
     ff0:	61 70       	andi	r22, 0x01	; 1
     ff2:	e2 59       	subi	r30, 0x92	; 146
     ff4:	fe 4f       	sbci	r31, 0xFE	; 254
     ff6:	80 81       	ld	r24, Z
     ff8:	0e 94 35 09 	call	0x126a	; 0x126a <DIO_s8SETPinVal>
     ffc:	cf 5f       	subi	r28, 0xFF	; 255
     ffe:	c4 30       	cpi	r28, 0x04	; 4
    1000:	68 f3       	brcs	.-38     	; 0xfdc <HLCD_vidWriteChar+0x72>
    1002:	61 e0       	ldi	r22, 0x01	; 1
    1004:	83 e0       	ldi	r24, 0x03	; 3
    1006:	0e 94 35 09 	call	0x126a	; 0x126a <DIO_s8SETPinVal>
    100a:	89 ef       	ldi	r24, 0xF9	; 249
    100c:	90 e0       	ldi	r25, 0x00	; 0
    100e:	01 97       	sbiw	r24, 0x01	; 1
    1010:	f1 f7       	brne	.-4      	; 0x100e <HLCD_vidWriteChar+0xa4>
    1012:	00 c0       	rjmp	.+0      	; 0x1014 <HLCD_vidWriteChar+0xaa>
    1014:	00 00       	nop
    1016:	60 e0       	ldi	r22, 0x00	; 0
    1018:	83 e0       	ldi	r24, 0x03	; 3
    101a:	0e 94 35 09 	call	0x126a	; 0x126a <DIO_s8SETPinVal>
    101e:	83 ef       	ldi	r24, 0xF3	; 243
    1020:	91 e0       	ldi	r25, 0x01	; 1
    1022:	01 97       	sbiw	r24, 0x01	; 1
    1024:	f1 f7       	brne	.-4      	; 0x1022 <HLCD_vidWriteChar+0xb8>
    1026:	00 c0       	rjmp	.+0      	; 0x1028 <HLCD_vidWriteChar+0xbe>
    1028:	00 00       	nop
    102a:	df 91       	pop	r29
    102c:	cf 91       	pop	r28
    102e:	1f 91       	pop	r17
    1030:	08 95       	ret

00001032 <HLCD_ClrDisplay>:
    1032:	81 e0       	ldi	r24, 0x01	; 1
    1034:	0e 94 02 07 	call	0xe04	; 0xe04 <HLCD_vidWritecmd>
    1038:	87 ee       	ldi	r24, 0xE7	; 231
    103a:	93 e0       	ldi	r25, 0x03	; 3
    103c:	01 97       	sbiw	r24, 0x01	; 1
    103e:	f1 f7       	brne	.-4      	; 0x103c <HLCD_ClrDisplay+0xa>
    1040:	00 c0       	rjmp	.+0      	; 0x1042 <HLCD_ClrDisplay+0x10>
    1042:	00 00       	nop
    1044:	82 e0       	ldi	r24, 0x02	; 2
    1046:	0e 94 02 07 	call	0xe04	; 0xe04 <HLCD_vidWritecmd>
    104a:	87 ee       	ldi	r24, 0xE7	; 231
    104c:	93 e0       	ldi	r25, 0x03	; 3
    104e:	01 97       	sbiw	r24, 0x01	; 1
    1050:	f1 f7       	brne	.-4      	; 0x104e <HLCD_ClrDisplay+0x1c>
    1052:	00 c0       	rjmp	.+0      	; 0x1054 <HLCD_ClrDisplay+0x22>
    1054:	00 00       	nop
    1056:	08 95       	ret

00001058 <HLCD_gotoXY>:
    1058:	81 11       	cpse	r24, r1
    105a:	08 c0       	rjmp	.+16     	; 0x106c <HLCD_gotoXY+0x14>
    105c:	60 31       	cpi	r22, 0x10	; 16
    105e:	30 f4       	brcc	.+12     	; 0x106c <HLCD_gotoXY+0x14>
    1060:	86 2f       	mov	r24, r22
    1062:	8f 70       	andi	r24, 0x0F	; 15
    1064:	80 68       	ori	r24, 0x80	; 128
    1066:	0e 94 02 07 	call	0xe04	; 0xe04 <HLCD_vidWritecmd>
    106a:	08 95       	ret
    106c:	81 30       	cpi	r24, 0x01	; 1
    106e:	39 f4       	brne	.+14     	; 0x107e <HLCD_gotoXY+0x26>
    1070:	60 31       	cpi	r22, 0x10	; 16
    1072:	28 f4       	brcc	.+10     	; 0x107e <HLCD_gotoXY+0x26>
    1074:	86 2f       	mov	r24, r22
    1076:	8f 70       	andi	r24, 0x0F	; 15
    1078:	80 6c       	ori	r24, 0xC0	; 192
    107a:	0e 94 02 07 	call	0xe04	; 0xe04 <HLCD_vidWritecmd>
    107e:	08 95       	ret

00001080 <HLCD_WriteString>:
    1080:	0f 93       	push	r16
    1082:	1f 93       	push	r17
    1084:	cf 93       	push	r28
    1086:	df 93       	push	r29
    1088:	8c 01       	movw	r16, r24
    108a:	fc 01       	movw	r30, r24
    108c:	80 81       	ld	r24, Z
    108e:	c0 e0       	ldi	r28, 0x00	; 0
    1090:	d0 e0       	ldi	r29, 0x00	; 0
    1092:	07 c0       	rjmp	.+14     	; 0x10a2 <HLCD_WriteString+0x22>
    1094:	0e 94 b5 07 	call	0xf6a	; 0xf6a <HLCD_vidWriteChar>
    1098:	21 96       	adiw	r28, 0x01	; 1
    109a:	f8 01       	movw	r30, r16
    109c:	ec 0f       	add	r30, r28
    109e:	fd 1f       	adc	r31, r29
    10a0:	80 81       	ld	r24, Z
    10a2:	81 11       	cpse	r24, r1
    10a4:	f7 cf       	rjmp	.-18     	; 0x1094 <HLCD_WriteString+0x14>
    10a6:	df 91       	pop	r29
    10a8:	cf 91       	pop	r28
    10aa:	1f 91       	pop	r17
    10ac:	0f 91       	pop	r16
    10ae:	08 95       	ret

000010b0 <HLCD_DisplayFloat>:
    10b0:	8f 92       	push	r8
    10b2:	9f 92       	push	r9
    10b4:	af 92       	push	r10
    10b6:	bf 92       	push	r11
    10b8:	cf 92       	push	r12
    10ba:	df 92       	push	r13
    10bc:	ef 92       	push	r14
    10be:	ff 92       	push	r15
    10c0:	1f 93       	push	r17
    10c2:	cf 93       	push	r28
    10c4:	df 93       	push	r29
    10c6:	cd b7       	in	r28, 0x3d	; 61
    10c8:	de b7       	in	r29, 0x3e	; 62
    10ca:	2c 97       	sbiw	r28, 0x0c	; 12
    10cc:	0f b6       	in	r0, 0x3f	; 63
    10ce:	f8 94       	cli
    10d0:	de bf       	out	0x3e, r29	; 62
    10d2:	0f be       	out	0x3f, r0	; 63
    10d4:	cd bf       	out	0x3d, r28	; 61
    10d6:	4b 01       	movw	r8, r22
    10d8:	5c 01       	movw	r10, r24
    10da:	0e 94 cc 0d 	call	0x1b98	; 0x1b98 <__fixunssfsi>
    10de:	6b 01       	movw	r12, r22
    10e0:	e1 2c       	mov	r14, r1
    10e2:	f1 2c       	mov	r15, r1
    10e4:	c7 01       	movw	r24, r14
    10e6:	b6 01       	movw	r22, r12
    10e8:	0e 94 fb 0d 	call	0x1bf6	; 0x1bf6 <__floatunsisf>
    10ec:	9b 01       	movw	r18, r22
    10ee:	ac 01       	movw	r20, r24
    10f0:	c5 01       	movw	r24, r10
    10f2:	b4 01       	movw	r22, r8
    10f4:	0e 94 e8 0c 	call	0x19d0	; 0x19d0 <__subsf3>
    10f8:	20 e0       	ldi	r18, 0x00	; 0
    10fa:	30 e0       	ldi	r19, 0x00	; 0
    10fc:	48 ec       	ldi	r20, 0xC8	; 200
    10fe:	52 e4       	ldi	r21, 0x42	; 66
    1100:	0e 94 ad 0e 	call	0x1d5a	; 0x1d5a <__mulsf3>
    1104:	0e 94 cc 0d 	call	0x1b98	; 0x1b98 <__fixunssfsi>
    1108:	8d ec       	ldi	r24, 0xCD	; 205
    110a:	68 9f       	mul	r22, r24
    110c:	81 2d       	mov	r24, r1
    110e:	11 24       	eor	r1, r1
    1110:	86 95       	lsr	r24
    1112:	86 95       	lsr	r24
    1114:	86 95       	lsr	r24
    1116:	28 2f       	mov	r18, r24
    1118:	22 0f       	add	r18, r18
    111a:	92 2f       	mov	r25, r18
    111c:	99 0f       	add	r25, r25
    111e:	99 0f       	add	r25, r25
    1120:	92 0f       	add	r25, r18
    1122:	69 1b       	sub	r22, r25
    1124:	60 5d       	subi	r22, 0xD0	; 208
    1126:	69 83       	std	Y+1, r22	; 0x01
    1128:	80 5d       	subi	r24, 0xD0	; 208
    112a:	8a 83       	std	Y+2, r24	; 0x02
    112c:	8e e2       	ldi	r24, 0x2E	; 46
    112e:	8b 83       	std	Y+3, r24	; 0x03
    1130:	13 e0       	ldi	r17, 0x03	; 3
    1132:	15 c0       	rjmp	.+42     	; 0x115e <HLCD_DisplayFloat+0xae>
    1134:	c7 01       	movw	r24, r14
    1136:	b6 01       	movw	r22, r12
    1138:	2a e0       	ldi	r18, 0x0A	; 10
    113a:	30 e0       	ldi	r19, 0x00	; 0
    113c:	40 e0       	ldi	r20, 0x00	; 0
    113e:	50 e0       	ldi	r21, 0x00	; 0
    1140:	0e 94 2a 0f 	call	0x1e54	; 0x1e54 <__udivmodsi4>
    1144:	e1 e0       	ldi	r30, 0x01	; 1
    1146:	f0 e0       	ldi	r31, 0x00	; 0
    1148:	ec 0f       	add	r30, r28
    114a:	fd 1f       	adc	r31, r29
    114c:	e1 0f       	add	r30, r17
    114e:	f1 1d       	adc	r31, r1
    1150:	60 5d       	subi	r22, 0xD0	; 208
    1152:	60 83       	st	Z, r22
    1154:	c2 2e       	mov	r12, r18
    1156:	d3 2e       	mov	r13, r19
    1158:	e4 2e       	mov	r14, r20
    115a:	f5 2e       	mov	r15, r21
    115c:	1f 5f       	subi	r17, 0xFF	; 255
    115e:	c1 14       	cp	r12, r1
    1160:	d1 04       	cpc	r13, r1
    1162:	e1 04       	cpc	r14, r1
    1164:	f1 04       	cpc	r15, r1
    1166:	31 f7       	brne	.-52     	; 0x1134 <HLCD_DisplayFloat+0x84>
    1168:	41 2f       	mov	r20, r17
    116a:	50 e0       	ldi	r21, 0x00	; 0
    116c:	e1 e0       	ldi	r30, 0x01	; 1
    116e:	f0 e0       	ldi	r31, 0x00	; 0
    1170:	ec 0f       	add	r30, r28
    1172:	fd 1f       	adc	r31, r29
    1174:	e4 0f       	add	r30, r20
    1176:	f5 1f       	adc	r31, r21
    1178:	10 82       	st	Z, r1
    117a:	80 e0       	ldi	r24, 0x00	; 0
    117c:	17 c0       	rjmp	.+46     	; 0x11ac <HLCD_DisplayFloat+0xfc>
    117e:	28 2f       	mov	r18, r24
    1180:	30 e0       	ldi	r19, 0x00	; 0
    1182:	a1 e0       	ldi	r26, 0x01	; 1
    1184:	b0 e0       	ldi	r27, 0x00	; 0
    1186:	ac 0f       	add	r26, r28
    1188:	bd 1f       	adc	r27, r29
    118a:	a2 0f       	add	r26, r18
    118c:	b3 1f       	adc	r27, r19
    118e:	9c 91       	ld	r25, X
    1190:	fa 01       	movw	r30, r20
    1192:	e2 1b       	sub	r30, r18
    1194:	f3 0b       	sbc	r31, r19
    1196:	31 97       	sbiw	r30, 0x01	; 1
    1198:	21 e0       	ldi	r18, 0x01	; 1
    119a:	30 e0       	ldi	r19, 0x00	; 0
    119c:	2c 0f       	add	r18, r28
    119e:	3d 1f       	adc	r19, r29
    11a0:	e2 0f       	add	r30, r18
    11a2:	f3 1f       	adc	r31, r19
    11a4:	20 81       	ld	r18, Z
    11a6:	2c 93       	st	X, r18
    11a8:	90 83       	st	Z, r25
    11aa:	8f 5f       	subi	r24, 0xFF	; 255
    11ac:	91 2f       	mov	r25, r17
    11ae:	96 95       	lsr	r25
    11b0:	89 17       	cp	r24, r25
    11b2:	28 f3       	brcs	.-54     	; 0x117e <HLCD_DisplayFloat+0xce>
    11b4:	ce 01       	movw	r24, r28
    11b6:	01 96       	adiw	r24, 0x01	; 1
    11b8:	0e 94 40 08 	call	0x1080	; 0x1080 <HLCD_WriteString>
    11bc:	2c 96       	adiw	r28, 0x0c	; 12
    11be:	0f b6       	in	r0, 0x3f	; 63
    11c0:	f8 94       	cli
    11c2:	de bf       	out	0x3e, r29	; 62
    11c4:	0f be       	out	0x3f, r0	; 63
    11c6:	cd bf       	out	0x3d, r28	; 61
    11c8:	df 91       	pop	r29
    11ca:	cf 91       	pop	r28
    11cc:	1f 91       	pop	r17
    11ce:	ff 90       	pop	r15
    11d0:	ef 90       	pop	r14
    11d2:	df 90       	pop	r13
    11d4:	cf 90       	pop	r12
    11d6:	bf 90       	pop	r11
    11d8:	af 90       	pop	r10
    11da:	9f 90       	pop	r9
    11dc:	8f 90       	pop	r8
    11de:	08 95       	ret

000011e0 <main>:
    11e0:	0e 94 70 00 	call	0xe0	; 0xe0 <APP_Init>
    11e4:	0e 94 90 00 	call	0x120	; 0x120 <APP_Start>
    11e8:	fd cf       	rjmp	.-6      	; 0x11e4 <main+0x4>

000011ea <DIO_s8SETPinDir>:
    11ea:	80 32       	cpi	r24, 0x20	; 32
    11ec:	c0 f5       	brcc	.+112    	; 0x125e <DIO_s8SETPinDir+0x74>
    11ee:	62 30       	cpi	r22, 0x02	; 2
    11f0:	c0 f5       	brcc	.+112    	; 0x1262 <DIO_s8SETPinDir+0x78>
    11f2:	e8 2f       	mov	r30, r24
    11f4:	e6 95       	lsr	r30
    11f6:	e6 95       	lsr	r30
    11f8:	e6 95       	lsr	r30
    11fa:	87 70       	andi	r24, 0x07	; 7
    11fc:	61 11       	cpse	r22, r1
    11fe:	17 c0       	rjmp	.+46     	; 0x122e <DIO_s8SETPinDir+0x44>
    1200:	f0 e0       	ldi	r31, 0x00	; 0
    1202:	ee 0f       	add	r30, r30
    1204:	ff 1f       	adc	r31, r31
    1206:	e6 58       	subi	r30, 0x86	; 134
    1208:	fe 4f       	sbci	r31, 0xFE	; 254
    120a:	01 90       	ld	r0, Z+
    120c:	f0 81       	ld	r31, Z
    120e:	e0 2d       	mov	r30, r0
    1210:	40 81       	ld	r20, Z
    1212:	21 e0       	ldi	r18, 0x01	; 1
    1214:	30 e0       	ldi	r19, 0x00	; 0
    1216:	b9 01       	movw	r22, r18
    1218:	02 c0       	rjmp	.+4      	; 0x121e <DIO_s8SETPinDir+0x34>
    121a:	66 0f       	add	r22, r22
    121c:	77 1f       	adc	r23, r23
    121e:	8a 95       	dec	r24
    1220:	e2 f7       	brpl	.-8      	; 0x121a <DIO_s8SETPinDir+0x30>
    1222:	cb 01       	movw	r24, r22
    1224:	80 95       	com	r24
    1226:	84 23       	and	r24, r20
    1228:	80 83       	st	Z, r24
    122a:	80 e0       	ldi	r24, 0x00	; 0
    122c:	08 95       	ret
    122e:	61 30       	cpi	r22, 0x01	; 1
    1230:	d1 f4       	brne	.+52     	; 0x1266 <DIO_s8SETPinDir+0x7c>
    1232:	f0 e0       	ldi	r31, 0x00	; 0
    1234:	ee 0f       	add	r30, r30
    1236:	ff 1f       	adc	r31, r31
    1238:	e6 58       	subi	r30, 0x86	; 134
    123a:	fe 4f       	sbci	r31, 0xFE	; 254
    123c:	01 90       	ld	r0, Z+
    123e:	f0 81       	ld	r31, Z
    1240:	e0 2d       	mov	r30, r0
    1242:	40 81       	ld	r20, Z
    1244:	21 e0       	ldi	r18, 0x01	; 1
    1246:	30 e0       	ldi	r19, 0x00	; 0
    1248:	b9 01       	movw	r22, r18
    124a:	02 c0       	rjmp	.+4      	; 0x1250 <DIO_s8SETPinDir+0x66>
    124c:	66 0f       	add	r22, r22
    124e:	77 1f       	adc	r23, r23
    1250:	8a 95       	dec	r24
    1252:	e2 f7       	brpl	.-8      	; 0x124c <DIO_s8SETPinDir+0x62>
    1254:	cb 01       	movw	r24, r22
    1256:	84 2b       	or	r24, r20
    1258:	80 83       	st	Z, r24
    125a:	80 e0       	ldi	r24, 0x00	; 0
    125c:	08 95       	ret
    125e:	8f ef       	ldi	r24, 0xFF	; 255
    1260:	08 95       	ret
    1262:	8f ef       	ldi	r24, 0xFF	; 255
    1264:	08 95       	ret
    1266:	80 e0       	ldi	r24, 0x00	; 0
    1268:	08 95       	ret

0000126a <DIO_s8SETPinVal>:
    126a:	80 32       	cpi	r24, 0x20	; 32
    126c:	c0 f5       	brcc	.+112    	; 0x12de <DIO_s8SETPinVal+0x74>
    126e:	62 30       	cpi	r22, 0x02	; 2
    1270:	c0 f5       	brcc	.+112    	; 0x12e2 <DIO_s8SETPinVal+0x78>
    1272:	e8 2f       	mov	r30, r24
    1274:	e6 95       	lsr	r30
    1276:	e6 95       	lsr	r30
    1278:	e6 95       	lsr	r30
    127a:	87 70       	andi	r24, 0x07	; 7
    127c:	61 11       	cpse	r22, r1
    127e:	17 c0       	rjmp	.+46     	; 0x12ae <DIO_s8SETPinVal+0x44>
    1280:	f0 e0       	ldi	r31, 0x00	; 0
    1282:	ee 0f       	add	r30, r30
    1284:	ff 1f       	adc	r31, r31
    1286:	ee 57       	subi	r30, 0x7E	; 126
    1288:	fe 4f       	sbci	r31, 0xFE	; 254
    128a:	01 90       	ld	r0, Z+
    128c:	f0 81       	ld	r31, Z
    128e:	e0 2d       	mov	r30, r0
    1290:	40 81       	ld	r20, Z
    1292:	21 e0       	ldi	r18, 0x01	; 1
    1294:	30 e0       	ldi	r19, 0x00	; 0
    1296:	b9 01       	movw	r22, r18
    1298:	02 c0       	rjmp	.+4      	; 0x129e <DIO_s8SETPinVal+0x34>
    129a:	66 0f       	add	r22, r22
    129c:	77 1f       	adc	r23, r23
    129e:	8a 95       	dec	r24
    12a0:	e2 f7       	brpl	.-8      	; 0x129a <DIO_s8SETPinVal+0x30>
    12a2:	cb 01       	movw	r24, r22
    12a4:	80 95       	com	r24
    12a6:	84 23       	and	r24, r20
    12a8:	80 83       	st	Z, r24
    12aa:	80 e0       	ldi	r24, 0x00	; 0
    12ac:	08 95       	ret
    12ae:	61 30       	cpi	r22, 0x01	; 1
    12b0:	d1 f4       	brne	.+52     	; 0x12e6 <DIO_s8SETPinVal+0x7c>
    12b2:	f0 e0       	ldi	r31, 0x00	; 0
    12b4:	ee 0f       	add	r30, r30
    12b6:	ff 1f       	adc	r31, r31
    12b8:	ee 57       	subi	r30, 0x7E	; 126
    12ba:	fe 4f       	sbci	r31, 0xFE	; 254
    12bc:	01 90       	ld	r0, Z+
    12be:	f0 81       	ld	r31, Z
    12c0:	e0 2d       	mov	r30, r0
    12c2:	40 81       	ld	r20, Z
    12c4:	21 e0       	ldi	r18, 0x01	; 1
    12c6:	30 e0       	ldi	r19, 0x00	; 0
    12c8:	b9 01       	movw	r22, r18
    12ca:	02 c0       	rjmp	.+4      	; 0x12d0 <DIO_s8SETPinVal+0x66>
    12cc:	66 0f       	add	r22, r22
    12ce:	77 1f       	adc	r23, r23
    12d0:	8a 95       	dec	r24
    12d2:	e2 f7       	brpl	.-8      	; 0x12cc <DIO_s8SETPinVal+0x62>
    12d4:	cb 01       	movw	r24, r22
    12d6:	84 2b       	or	r24, r20
    12d8:	80 83       	st	Z, r24
    12da:	80 e0       	ldi	r24, 0x00	; 0
    12dc:	08 95       	ret
    12de:	8f ef       	ldi	r24, 0xFF	; 255
    12e0:	08 95       	ret
    12e2:	8f ef       	ldi	r24, 0xFF	; 255
    12e4:	08 95       	ret
    12e6:	80 e0       	ldi	r24, 0x00	; 0
    12e8:	08 95       	ret

000012ea <DIO_s8GETPinVal>:
    12ea:	80 32       	cpi	r24, 0x20	; 32
    12ec:	d8 f4       	brcc	.+54     	; 0x1324 <DIO_s8GETPinVal+0x3a>
    12ee:	e8 2f       	mov	r30, r24
    12f0:	e6 95       	lsr	r30
    12f2:	e6 95       	lsr	r30
    12f4:	e6 95       	lsr	r30
    12f6:	87 70       	andi	r24, 0x07	; 7
    12f8:	f0 e0       	ldi	r31, 0x00	; 0
    12fa:	ee 0f       	add	r30, r30
    12fc:	ff 1f       	adc	r31, r31
    12fe:	ee 58       	subi	r30, 0x8E	; 142
    1300:	fe 4f       	sbci	r31, 0xFE	; 254
    1302:	01 90       	ld	r0, Z+
    1304:	f0 81       	ld	r31, Z
    1306:	e0 2d       	mov	r30, r0
    1308:	20 81       	ld	r18, Z
    130a:	30 e0       	ldi	r19, 0x00	; 0
    130c:	a9 01       	movw	r20, r18
    130e:	02 c0       	rjmp	.+4      	; 0x1314 <DIO_s8GETPinVal+0x2a>
    1310:	55 95       	asr	r21
    1312:	47 95       	ror	r20
    1314:	8a 95       	dec	r24
    1316:	e2 f7       	brpl	.-8      	; 0x1310 <DIO_s8GETPinVal+0x26>
    1318:	ca 01       	movw	r24, r20
    131a:	81 70       	andi	r24, 0x01	; 1
    131c:	fb 01       	movw	r30, r22
    131e:	80 83       	st	Z, r24
    1320:	80 e0       	ldi	r24, 0x00	; 0
    1322:	08 95       	ret
    1324:	8f ef       	ldi	r24, 0xFF	; 255
    1326:	08 95       	ret

00001328 <SET_GLOBAL_INTERRUPT>:
    1328:	81 30       	cpi	r24, 0x01	; 1
    132a:	19 f4       	brne	.+6      	; 0x1332 <SET_GLOBAL_INTERRUPT+0xa>
    132c:	78 94       	sei
    132e:	80 e0       	ldi	r24, 0x00	; 0
    1330:	08 95       	ret
    1332:	81 11       	cpse	r24, r1
    1334:	02 c0       	rjmp	.+4      	; 0x133a <SET_GLOBAL_INTERRUPT+0x12>
    1336:	f8 94       	cli
    1338:	08 95       	ret
    133a:	81 e0       	ldi	r24, 0x01	; 1
    133c:	08 95       	ret

0000133e <EXTINT_init>:
    133e:	cf 93       	push	r28
    1340:	df 93       	push	r29
    1342:	c8 2f       	mov	r28, r24
    1344:	d6 2f       	mov	r29, r22
    1346:	81 e0       	ldi	r24, 0x01	; 1
    1348:	0e 94 94 09 	call	0x1328	; 0x1328 <SET_GLOBAL_INTERRUPT>
    134c:	c1 30       	cpi	r28, 0x01	; 1
    134e:	99 f1       	breq	.+102    	; 0x13b6 <EXTINT_init+0x78>
    1350:	20 f0       	brcs	.+8      	; 0x135a <EXTINT_init+0x1c>
    1352:	c2 30       	cpi	r28, 0x02	; 2
    1354:	09 f4       	brne	.+2      	; 0x1358 <EXTINT_init+0x1a>
    1356:	5d c0       	rjmp	.+186    	; 0x1412 <EXTINT_init+0xd4>
    1358:	72 c0       	rjmp	.+228    	; 0x143e <EXTINT_init+0x100>
    135a:	d1 11       	cpse	r29, r1
    135c:	07 c0       	rjmp	.+14     	; 0x136c <EXTINT_init+0x2e>
    135e:	85 b7       	in	r24, 0x35	; 53
    1360:	8e 7f       	andi	r24, 0xFE	; 254
    1362:	85 bf       	out	0x35, r24	; 53
    1364:	85 b7       	in	r24, 0x35	; 53
    1366:	8d 7f       	andi	r24, 0xFD	; 253
    1368:	85 bf       	out	0x35, r24	; 53
    136a:	20 c0       	rjmp	.+64     	; 0x13ac <EXTINT_init+0x6e>
    136c:	d1 30       	cpi	r29, 0x01	; 1
    136e:	39 f4       	brne	.+14     	; 0x137e <EXTINT_init+0x40>
    1370:	85 b7       	in	r24, 0x35	; 53
    1372:	8e 7f       	andi	r24, 0xFE	; 254
    1374:	85 bf       	out	0x35, r24	; 53
    1376:	85 b7       	in	r24, 0x35	; 53
    1378:	82 60       	ori	r24, 0x02	; 2
    137a:	85 bf       	out	0x35, r24	; 53
    137c:	17 c0       	rjmp	.+46     	; 0x13ac <EXTINT_init+0x6e>
    137e:	d2 30       	cpi	r29, 0x02	; 2
    1380:	39 f4       	brne	.+14     	; 0x1390 <EXTINT_init+0x52>
    1382:	85 b7       	in	r24, 0x35	; 53
    1384:	81 60       	ori	r24, 0x01	; 1
    1386:	85 bf       	out	0x35, r24	; 53
    1388:	85 b7       	in	r24, 0x35	; 53
    138a:	82 60       	ori	r24, 0x02	; 2
    138c:	85 bf       	out	0x35, r24	; 53
    138e:	0e c0       	rjmp	.+28     	; 0x13ac <EXTINT_init+0x6e>
    1390:	d3 30       	cpi	r29, 0x03	; 3
    1392:	39 f4       	brne	.+14     	; 0x13a2 <EXTINT_init+0x64>
    1394:	85 b7       	in	r24, 0x35	; 53
    1396:	81 60       	ori	r24, 0x01	; 1
    1398:	85 bf       	out	0x35, r24	; 53
    139a:	85 b7       	in	r24, 0x35	; 53
    139c:	8d 7f       	andi	r24, 0xFD	; 253
    139e:	85 bf       	out	0x35, r24	; 53
    13a0:	05 c0       	rjmp	.+10     	; 0x13ac <EXTINT_init+0x6e>
    13a2:	80 e0       	ldi	r24, 0x00	; 0
    13a4:	0e 94 94 09 	call	0x1328	; 0x1328 <SET_GLOBAL_INTERRUPT>
    13a8:	81 e0       	ldi	r24, 0x01	; 1
    13aa:	4d c0       	rjmp	.+154    	; 0x1446 <EXTINT_init+0x108>
    13ac:	8b b7       	in	r24, 0x3b	; 59
    13ae:	80 64       	ori	r24, 0x40	; 64
    13b0:	8b bf       	out	0x3b, r24	; 59
    13b2:	80 e0       	ldi	r24, 0x00	; 0
    13b4:	48 c0       	rjmp	.+144    	; 0x1446 <EXTINT_init+0x108>
    13b6:	d1 11       	cpse	r29, r1
    13b8:	07 c0       	rjmp	.+14     	; 0x13c8 <EXTINT_init+0x8a>
    13ba:	85 b7       	in	r24, 0x35	; 53
    13bc:	8b 7f       	andi	r24, 0xFB	; 251
    13be:	85 bf       	out	0x35, r24	; 53
    13c0:	85 b7       	in	r24, 0x35	; 53
    13c2:	87 7f       	andi	r24, 0xF7	; 247
    13c4:	85 bf       	out	0x35, r24	; 53
    13c6:	20 c0       	rjmp	.+64     	; 0x1408 <EXTINT_init+0xca>
    13c8:	d1 30       	cpi	r29, 0x01	; 1
    13ca:	39 f4       	brne	.+14     	; 0x13da <EXTINT_init+0x9c>
    13cc:	85 b7       	in	r24, 0x35	; 53
    13ce:	8b 7f       	andi	r24, 0xFB	; 251
    13d0:	85 bf       	out	0x35, r24	; 53
    13d2:	85 b7       	in	r24, 0x35	; 53
    13d4:	88 60       	ori	r24, 0x08	; 8
    13d6:	85 bf       	out	0x35, r24	; 53
    13d8:	17 c0       	rjmp	.+46     	; 0x1408 <EXTINT_init+0xca>
    13da:	d2 30       	cpi	r29, 0x02	; 2
    13dc:	39 f4       	brne	.+14     	; 0x13ec <EXTINT_init+0xae>
    13de:	85 b7       	in	r24, 0x35	; 53
    13e0:	84 60       	ori	r24, 0x04	; 4
    13e2:	85 bf       	out	0x35, r24	; 53
    13e4:	85 b7       	in	r24, 0x35	; 53
    13e6:	88 60       	ori	r24, 0x08	; 8
    13e8:	85 bf       	out	0x35, r24	; 53
    13ea:	0e c0       	rjmp	.+28     	; 0x1408 <EXTINT_init+0xca>
    13ec:	d3 30       	cpi	r29, 0x03	; 3
    13ee:	39 f4       	brne	.+14     	; 0x13fe <EXTINT_init+0xc0>
    13f0:	85 b7       	in	r24, 0x35	; 53
    13f2:	84 60       	ori	r24, 0x04	; 4
    13f4:	85 bf       	out	0x35, r24	; 53
    13f6:	85 b7       	in	r24, 0x35	; 53
    13f8:	87 7f       	andi	r24, 0xF7	; 247
    13fa:	85 bf       	out	0x35, r24	; 53
    13fc:	05 c0       	rjmp	.+10     	; 0x1408 <EXTINT_init+0xca>
    13fe:	80 e0       	ldi	r24, 0x00	; 0
    1400:	0e 94 94 09 	call	0x1328	; 0x1328 <SET_GLOBAL_INTERRUPT>
    1404:	81 e0       	ldi	r24, 0x01	; 1
    1406:	1f c0       	rjmp	.+62     	; 0x1446 <EXTINT_init+0x108>
    1408:	8b b7       	in	r24, 0x3b	; 59
    140a:	80 68       	ori	r24, 0x80	; 128
    140c:	8b bf       	out	0x3b, r24	; 59
    140e:	80 e0       	ldi	r24, 0x00	; 0
    1410:	1a c0       	rjmp	.+52     	; 0x1446 <EXTINT_init+0x108>
    1412:	d1 30       	cpi	r29, 0x01	; 1
    1414:	21 f4       	brne	.+8      	; 0x141e <EXTINT_init+0xe0>
    1416:	84 b7       	in	r24, 0x34	; 52
    1418:	8f 7b       	andi	r24, 0xBF	; 191
    141a:	84 bf       	out	0x34, r24	; 52
    141c:	0b c0       	rjmp	.+22     	; 0x1434 <EXTINT_init+0xf6>
    141e:	d2 30       	cpi	r29, 0x02	; 2
    1420:	21 f4       	brne	.+8      	; 0x142a <EXTINT_init+0xec>
    1422:	84 b7       	in	r24, 0x34	; 52
    1424:	80 64       	ori	r24, 0x40	; 64
    1426:	84 bf       	out	0x34, r24	; 52
    1428:	05 c0       	rjmp	.+10     	; 0x1434 <EXTINT_init+0xf6>
    142a:	80 e0       	ldi	r24, 0x00	; 0
    142c:	0e 94 94 09 	call	0x1328	; 0x1328 <SET_GLOBAL_INTERRUPT>
    1430:	81 e0       	ldi	r24, 0x01	; 1
    1432:	09 c0       	rjmp	.+18     	; 0x1446 <EXTINT_init+0x108>
    1434:	8b b7       	in	r24, 0x3b	; 59
    1436:	80 62       	ori	r24, 0x20	; 32
    1438:	8b bf       	out	0x3b, r24	; 59
    143a:	80 e0       	ldi	r24, 0x00	; 0
    143c:	04 c0       	rjmp	.+8      	; 0x1446 <EXTINT_init+0x108>
    143e:	80 e0       	ldi	r24, 0x00	; 0
    1440:	0e 94 94 09 	call	0x1328	; 0x1328 <SET_GLOBAL_INTERRUPT>
    1444:	81 e0       	ldi	r24, 0x01	; 1
    1446:	df 91       	pop	r29
    1448:	cf 91       	pop	r28
    144a:	08 95       	ret

0000144c <EXTINT_CallBack>:
    144c:	81 11       	cpse	r24, r1
    144e:	05 c0       	rjmp	.+10     	; 0x145a <EXTINT_CallBack+0xe>
    1450:	70 93 a6 02 	sts	0x02A6, r23	; 0x8002a6 <ptrINT0+0x1>
    1454:	60 93 a5 02 	sts	0x02A5, r22	; 0x8002a5 <ptrINT0>
    1458:	08 95       	ret
    145a:	81 30       	cpi	r24, 0x01	; 1
    145c:	31 f4       	brne	.+12     	; 0x146a <EXTINT_CallBack+0x1e>
    145e:	70 93 a4 02 	sts	0x02A4, r23	; 0x8002a4 <ptrINT1+0x1>
    1462:	60 93 a3 02 	sts	0x02A3, r22	; 0x8002a3 <ptrINT1>
    1466:	80 e0       	ldi	r24, 0x00	; 0
    1468:	08 95       	ret
    146a:	82 30       	cpi	r24, 0x02	; 2
    146c:	31 f4       	brne	.+12     	; 0x147a <EXTINT_CallBack+0x2e>
    146e:	70 93 a2 02 	sts	0x02A2, r23	; 0x8002a2 <ptrINT2+0x1>
    1472:	60 93 a1 02 	sts	0x02A1, r22	; 0x8002a1 <ptrINT2>
    1476:	80 e0       	ldi	r24, 0x00	; 0
    1478:	08 95       	ret
    147a:	81 e0       	ldi	r24, 0x01	; 1
    147c:	08 95       	ret

0000147e <__vector_1>:
    147e:	1f 92       	push	r1
    1480:	0f 92       	push	r0
    1482:	0f b6       	in	r0, 0x3f	; 63
    1484:	0f 92       	push	r0
    1486:	11 24       	eor	r1, r1
    1488:	2f 93       	push	r18
    148a:	3f 93       	push	r19
    148c:	4f 93       	push	r20
    148e:	5f 93       	push	r21
    1490:	6f 93       	push	r22
    1492:	7f 93       	push	r23
    1494:	8f 93       	push	r24
    1496:	9f 93       	push	r25
    1498:	af 93       	push	r26
    149a:	bf 93       	push	r27
    149c:	ef 93       	push	r30
    149e:	ff 93       	push	r31
    14a0:	e0 91 a5 02 	lds	r30, 0x02A5	; 0x8002a5 <ptrINT0>
    14a4:	f0 91 a6 02 	lds	r31, 0x02A6	; 0x8002a6 <ptrINT0+0x1>
    14a8:	30 97       	sbiw	r30, 0x00	; 0
    14aa:	09 f0       	breq	.+2      	; 0x14ae <__vector_1+0x30>
    14ac:	09 95       	icall
    14ae:	ff 91       	pop	r31
    14b0:	ef 91       	pop	r30
    14b2:	bf 91       	pop	r27
    14b4:	af 91       	pop	r26
    14b6:	9f 91       	pop	r25
    14b8:	8f 91       	pop	r24
    14ba:	7f 91       	pop	r23
    14bc:	6f 91       	pop	r22
    14be:	5f 91       	pop	r21
    14c0:	4f 91       	pop	r20
    14c2:	3f 91       	pop	r19
    14c4:	2f 91       	pop	r18
    14c6:	0f 90       	pop	r0
    14c8:	0f be       	out	0x3f, r0	; 63
    14ca:	0f 90       	pop	r0
    14cc:	1f 90       	pop	r1
    14ce:	18 95       	reti

000014d0 <__vector_2>:
    14d0:	1f 92       	push	r1
    14d2:	0f 92       	push	r0
    14d4:	0f b6       	in	r0, 0x3f	; 63
    14d6:	0f 92       	push	r0
    14d8:	11 24       	eor	r1, r1
    14da:	2f 93       	push	r18
    14dc:	3f 93       	push	r19
    14de:	4f 93       	push	r20
    14e0:	5f 93       	push	r21
    14e2:	6f 93       	push	r22
    14e4:	7f 93       	push	r23
    14e6:	8f 93       	push	r24
    14e8:	9f 93       	push	r25
    14ea:	af 93       	push	r26
    14ec:	bf 93       	push	r27
    14ee:	ef 93       	push	r30
    14f0:	ff 93       	push	r31
    14f2:	e0 91 a3 02 	lds	r30, 0x02A3	; 0x8002a3 <ptrINT1>
    14f6:	f0 91 a4 02 	lds	r31, 0x02A4	; 0x8002a4 <ptrINT1+0x1>
    14fa:	30 97       	sbiw	r30, 0x00	; 0
    14fc:	09 f0       	breq	.+2      	; 0x1500 <__vector_2+0x30>
    14fe:	09 95       	icall
    1500:	ff 91       	pop	r31
    1502:	ef 91       	pop	r30
    1504:	bf 91       	pop	r27
    1506:	af 91       	pop	r26
    1508:	9f 91       	pop	r25
    150a:	8f 91       	pop	r24
    150c:	7f 91       	pop	r23
    150e:	6f 91       	pop	r22
    1510:	5f 91       	pop	r21
    1512:	4f 91       	pop	r20
    1514:	3f 91       	pop	r19
    1516:	2f 91       	pop	r18
    1518:	0f 90       	pop	r0
    151a:	0f be       	out	0x3f, r0	; 63
    151c:	0f 90       	pop	r0
    151e:	1f 90       	pop	r1
    1520:	18 95       	reti

00001522 <__vector_3>:
    1522:	1f 92       	push	r1
    1524:	0f 92       	push	r0
    1526:	0f b6       	in	r0, 0x3f	; 63
    1528:	0f 92       	push	r0
    152a:	11 24       	eor	r1, r1
    152c:	2f 93       	push	r18
    152e:	3f 93       	push	r19
    1530:	4f 93       	push	r20
    1532:	5f 93       	push	r21
    1534:	6f 93       	push	r22
    1536:	7f 93       	push	r23
    1538:	8f 93       	push	r24
    153a:	9f 93       	push	r25
    153c:	af 93       	push	r26
    153e:	bf 93       	push	r27
    1540:	ef 93       	push	r30
    1542:	ff 93       	push	r31
    1544:	e0 91 a1 02 	lds	r30, 0x02A1	; 0x8002a1 <ptrINT2>
    1548:	f0 91 a2 02 	lds	r31, 0x02A2	; 0x8002a2 <ptrINT2+0x1>
    154c:	30 97       	sbiw	r30, 0x00	; 0
    154e:	09 f0       	breq	.+2      	; 0x1552 <__vector_3+0x30>
    1550:	09 95       	icall
    1552:	ff 91       	pop	r31
    1554:	ef 91       	pop	r30
    1556:	bf 91       	pop	r27
    1558:	af 91       	pop	r26
    155a:	9f 91       	pop	r25
    155c:	8f 91       	pop	r24
    155e:	7f 91       	pop	r23
    1560:	6f 91       	pop	r22
    1562:	5f 91       	pop	r21
    1564:	4f 91       	pop	r20
    1566:	3f 91       	pop	r19
    1568:	2f 91       	pop	r18
    156a:	0f 90       	pop	r0
    156c:	0f be       	out	0x3f, r0	; 63
    156e:	0f 90       	pop	r0
    1570:	1f 90       	pop	r1
    1572:	18 95       	reti

00001574 <SPI_MasterInit>:
    1574:	8d b1       	in	r24, 0x0d	; 13
    1576:	80 61       	ori	r24, 0x10	; 16
    1578:	8d b9       	out	0x0d, r24	; 13
    157a:	8d b1       	in	r24, 0x0d	; 13
    157c:	9e b1       	in	r25, 0x0e	; 14
    157e:	8e 7f       	andi	r24, 0xFE	; 254
    1580:	9c 7f       	andi	r25, 0xFC	; 252
    1582:	9e b9       	out	0x0e, r25	; 14
    1584:	8d b9       	out	0x0d, r24	; 13
    1586:	8d b1       	in	r24, 0x0d	; 13
    1588:	9e b1       	in	r25, 0x0e	; 14
    158a:	93 60       	ori	r25, 0x03	; 3
    158c:	9e b9       	out	0x0e, r25	; 14
    158e:	8d b9       	out	0x0d, r24	; 13
    1590:	8d b1       	in	r24, 0x0d	; 13
    1592:	87 7f       	andi	r24, 0xF7	; 247
    1594:	8d b9       	out	0x0d, r24	; 13
    1596:	8d b1       	in	r24, 0x0d	; 13
    1598:	8b 7f       	andi	r24, 0xFB	; 251
    159a:	8d b9       	out	0x0d, r24	; 13
    159c:	8d b1       	in	r24, 0x0d	; 13
    159e:	80 64       	ori	r24, 0x40	; 64
    15a0:	8d b9       	out	0x0d, r24	; 13
    15a2:	08 95       	ret

000015a4 <SPI_TranscieveChar>:
    15a4:	61 15       	cp	r22, r1
    15a6:	71 05       	cpc	r23, r1
    15a8:	f9 f0       	breq	.+62     	; 0x15e8 <SPI_TranscieveChar+0x44>
    15aa:	8f b9       	out	0x0f, r24	; 15
    15ac:	80 e0       	ldi	r24, 0x00	; 0
    15ae:	90 e0       	ldi	r25, 0x00	; 0
    15b0:	dc 01       	movw	r26, r24
    15b2:	03 c0       	rjmp	.+6      	; 0x15ba <SPI_TranscieveChar+0x16>
    15b4:	01 96       	adiw	r24, 0x01	; 1
    15b6:	a1 1d       	adc	r26, r1
    15b8:	b1 1d       	adc	r27, r1
    15ba:	77 99       	sbic	0x0e, 7	; 14
    15bc:	07 c0       	rjmp	.+14     	; 0x15cc <SPI_TranscieveChar+0x28>
    15be:	80 3a       	cpi	r24, 0xA0	; 160
    15c0:	26 e8       	ldi	r18, 0x86	; 134
    15c2:	92 07       	cpc	r25, r18
    15c4:	21 e0       	ldi	r18, 0x01	; 1
    15c6:	a2 07       	cpc	r26, r18
    15c8:	b1 05       	cpc	r27, r1
    15ca:	a0 f3       	brcs	.-24     	; 0x15b4 <SPI_TranscieveChar+0x10>
    15cc:	80 3a       	cpi	r24, 0xA0	; 160
    15ce:	96 48       	sbci	r25, 0x86	; 134
    15d0:	a1 40       	sbci	r26, 0x01	; 1
    15d2:	b1 05       	cpc	r27, r1
    15d4:	59 f0       	breq	.+22     	; 0x15ec <SPI_TranscieveChar+0x48>
    15d6:	8f b1       	in	r24, 0x0f	; 15
    15d8:	fb 01       	movw	r30, r22
    15da:	80 83       	st	Z, r24
    15dc:	f1 e2       	ldi	r31, 0x21	; 33
    15de:	fa 95       	dec	r31
    15e0:	f1 f7       	brne	.-4      	; 0x15de <SPI_TranscieveChar+0x3a>
    15e2:	00 00       	nop
    15e4:	80 e0       	ldi	r24, 0x00	; 0
    15e6:	08 95       	ret
    15e8:	81 e0       	ldi	r24, 0x01	; 1
    15ea:	08 95       	ret
    15ec:	81 e0       	ldi	r24, 0x01	; 1
    15ee:	08 95       	ret

000015f0 <__vector_12>:
    15f0:	1f 92       	push	r1
    15f2:	0f 92       	push	r0
    15f4:	0f b6       	in	r0, 0x3f	; 63
    15f6:	0f 92       	push	r0
    15f8:	11 24       	eor	r1, r1
    15fa:	2f 93       	push	r18
    15fc:	3f 93       	push	r19
    15fe:	8f 93       	push	r24
    1600:	9f 93       	push	r25
    1602:	ef 93       	push	r30
    1604:	ff 93       	push	r31
    1606:	8f b1       	in	r24, 0x0f	; 15
    1608:	80 93 e8 02 	sts	0x02E8, r24	; 0x8002e8 <u8_g_SlaveReceive>
    160c:	90 91 b8 02 	lds	r25, 0x02B8	; 0x8002b8 <u8_g_SlaveRxIndex>
    1610:	9f 30       	cpi	r25, 0x0F	; 15
    1612:	11 f4       	brne	.+4      	; 0x1618 <__vector_12+0x28>
    1614:	10 92 b8 02 	sts	0x02B8, r1	; 0x8002b8 <u8_g_SlaveRxIndex>
    1618:	83 32       	cpi	r24, 0x23	; 35
    161a:	59 f0       	breq	.+22     	; 0x1632 <__vector_12+0x42>
    161c:	90 91 b8 02 	lds	r25, 0x02B8	; 0x8002b8 <u8_g_SlaveRxIndex>
    1620:	e9 2f       	mov	r30, r25
    1622:	f0 e0       	ldi	r31, 0x00	; 0
    1624:	e9 55       	subi	r30, 0x59	; 89
    1626:	fd 4f       	sbci	r31, 0xFD	; 253
    1628:	80 83       	st	Z, r24
    162a:	9f 5f       	subi	r25, 0xFF	; 255
    162c:	90 93 b8 02 	sts	0x02B8, r25	; 0x8002b8 <u8_g_SlaveRxIndex>
    1630:	04 c0       	rjmp	.+8      	; 0x163a <__vector_12+0x4a>
    1632:	80 91 b8 02 	lds	r24, 0x02B8	; 0x8002b8 <u8_g_SlaveRxIndex>
    1636:	80 93 e9 02 	sts	0x02E9, r24	; 0x8002e9 <u8_g_SlaveRxLen>
    163a:	80 91 b9 02 	lds	r24, 0x02B9	; 0x8002b9 <u8_g_SlaveTxIndex>
    163e:	90 91 ea 02 	lds	r25, 0x02EA	; 0x8002ea <u8_g_SlaveTxLen>
    1642:	89 17       	cp	r24, r25
    1644:	88 f4       	brcc	.+34     	; 0x1668 <__vector_12+0x78>
    1646:	20 91 b6 02 	lds	r18, 0x02B6	; 0x8002b6 <pu8_g_SlaveTxPtr>
    164a:	30 91 b7 02 	lds	r19, 0x02B7	; 0x8002b7 <pu8_g_SlaveTxPtr+0x1>
    164e:	21 15       	cp	r18, r1
    1650:	31 05       	cpc	r19, r1
    1652:	51 f0       	breq	.+20     	; 0x1668 <__vector_12+0x78>
    1654:	91 e0       	ldi	r25, 0x01	; 1
    1656:	98 0f       	add	r25, r24
    1658:	90 93 b9 02 	sts	0x02B9, r25	; 0x8002b9 <u8_g_SlaveTxIndex>
    165c:	f9 01       	movw	r30, r18
    165e:	e8 0f       	add	r30, r24
    1660:	f1 1d       	adc	r31, r1
    1662:	80 81       	ld	r24, Z
    1664:	8f b9       	out	0x0f, r24	; 15
    1666:	04 c0       	rjmp	.+8      	; 0x1670 <__vector_12+0x80>
    1668:	89 17       	cp	r24, r25
    166a:	10 f0       	brcs	.+4      	; 0x1670 <__vector_12+0x80>
    166c:	83 e2       	ldi	r24, 0x23	; 35
    166e:	8f b9       	out	0x0f, r24	; 15
    1670:	ff 91       	pop	r31
    1672:	ef 91       	pop	r30
    1674:	9f 91       	pop	r25
    1676:	8f 91       	pop	r24
    1678:	3f 91       	pop	r19
    167a:	2f 91       	pop	r18
    167c:	0f 90       	pop	r0
    167e:	0f be       	out	0x3f, r0	; 63
    1680:	0f 90       	pop	r0
    1682:	1f 90       	pop	r1
    1684:	18 95       	reti

00001686 <TIM0_voidInit>:
    1686:	81 30       	cpi	r24, 0x01	; 1
    1688:	61 f0       	breq	.+24     	; 0x16a2 <TIM0_voidInit+0x1c>
    168a:	28 f0       	brcs	.+10     	; 0x1696 <TIM0_voidInit+0x10>
    168c:	82 30       	cpi	r24, 0x02	; 2
    168e:	29 f0       	breq	.+10     	; 0x169a <TIM0_voidInit+0x14>
    1690:	83 30       	cpi	r24, 0x03	; 3
    1692:	29 f0       	breq	.+10     	; 0x169e <TIM0_voidInit+0x18>
    1694:	0f c0       	rjmp	.+30     	; 0x16b4 <TIM0_voidInit+0x2e>
    1696:	20 e0       	ldi	r18, 0x00	; 0
    1698:	05 c0       	rjmp	.+10     	; 0x16a4 <TIM0_voidInit+0x1e>
    169a:	28 e0       	ldi	r18, 0x08	; 8
    169c:	03 c0       	rjmp	.+6      	; 0x16a4 <TIM0_voidInit+0x1e>
    169e:	28 e4       	ldi	r18, 0x48	; 72
    16a0:	01 c0       	rjmp	.+2      	; 0x16a4 <TIM0_voidInit+0x1e>
    16a2:	20 e4       	ldi	r18, 0x40	; 64
    16a4:	93 b7       	in	r25, 0x33	; 51
    16a6:	97 7b       	andi	r25, 0xB7	; 183
    16a8:	93 bf       	out	0x33, r25	; 51
    16aa:	83 b7       	in	r24, 0x33	; 51
    16ac:	82 2b       	or	r24, r18
    16ae:	83 bf       	out	0x33, r24	; 51
    16b0:	80 e0       	ldi	r24, 0x00	; 0
    16b2:	08 95       	ret
    16b4:	81 e0       	ldi	r24, 0x01	; 1
    16b6:	08 95       	ret

000016b8 <TIM0_Start>:
    16b8:	9f ef       	ldi	r25, 0xFF	; 255
    16ba:	98 0f       	add	r25, r24
    16bc:	97 30       	cpi	r25, 0x07	; 7
    16be:	40 f4       	brcc	.+16     	; 0x16d0 <TIM0_Start+0x18>
    16c0:	93 b7       	in	r25, 0x33	; 51
    16c2:	98 7f       	andi	r25, 0xF8	; 248
    16c4:	93 bf       	out	0x33, r25	; 51
    16c6:	93 b7       	in	r25, 0x33	; 51
    16c8:	89 2b       	or	r24, r25
    16ca:	83 bf       	out	0x33, r24	; 51
    16cc:	80 e0       	ldi	r24, 0x00	; 0
    16ce:	08 95       	ret
    16d0:	81 e0       	ldi	r24, 0x01	; 1
    16d2:	08 95       	ret

000016d4 <TIM0_Stop>:
    16d4:	83 b7       	in	r24, 0x33	; 51
    16d6:	88 7f       	andi	r24, 0xF8	; 248
    16d8:	83 bf       	out	0x33, r24	; 51
    16da:	12 be       	out	0x32, r1	; 50
    16dc:	88 b7       	in	r24, 0x38	; 56
    16de:	8e 7f       	andi	r24, 0xFE	; 254
    16e0:	88 bf       	out	0x38, r24	; 56
    16e2:	10 92 bc 02 	sts	0x02BC, r1	; 0x8002bc <u8_gs_OVFCount>
    16e6:	08 95       	ret

000016e8 <TIM0_SetValue>:
    16e8:	82 bf       	out	0x32, r24	; 50
    16ea:	08 95       	ret

000016ec <TIM0_GetOVF>:
    16ec:	fc 01       	movw	r30, r24
    16ee:	89 2b       	or	r24, r25
    16f0:	29 f0       	breq	.+10     	; 0x16fc <TIM0_GetOVF+0x10>
    16f2:	98 b7       	in	r25, 0x38	; 56
    16f4:	91 70       	andi	r25, 0x01	; 1
    16f6:	90 83       	st	Z, r25
    16f8:	80 e0       	ldi	r24, 0x00	; 0
    16fa:	08 95       	ret
    16fc:	81 e0       	ldi	r24, 0x01	; 1
    16fe:	08 95       	ret

00001700 <TIM0_ClearOVF>:
    1700:	88 b7       	in	r24, 0x38	; 56
    1702:	81 60       	ori	r24, 0x01	; 1
    1704:	88 bf       	out	0x38, r24	; 56
    1706:	08 95       	ret

00001708 <TIM0_GetState>:
    1708:	00 97       	sbiw	r24, 0x00	; 0
    170a:	61 f0       	breq	.+24     	; 0x1724 <TIM0_GetState+0x1c>
    170c:	03 b6       	in	r0, 0x33	; 51
    170e:	00 fe       	sbrs	r0, 0
    1710:	05 c0       	rjmp	.+10     	; 0x171c <TIM0_GetState+0x14>
    1712:	21 e0       	ldi	r18, 0x01	; 1
    1714:	fc 01       	movw	r30, r24
    1716:	20 83       	st	Z, r18
    1718:	80 e0       	ldi	r24, 0x00	; 0
    171a:	08 95       	ret
    171c:	fc 01       	movw	r30, r24
    171e:	10 82       	st	Z, r1
    1720:	80 e0       	ldi	r24, 0x00	; 0
    1722:	08 95       	ret
    1724:	81 e0       	ldi	r24, 0x01	; 1
    1726:	08 95       	ret

00001728 <__vector_11>:
    1728:	1f 92       	push	r1
    172a:	0f 92       	push	r0
    172c:	0f b6       	in	r0, 0x3f	; 63
    172e:	0f 92       	push	r0
    1730:	11 24       	eor	r1, r1
    1732:	2f 93       	push	r18
    1734:	3f 93       	push	r19
    1736:	4f 93       	push	r20
    1738:	5f 93       	push	r21
    173a:	6f 93       	push	r22
    173c:	7f 93       	push	r23
    173e:	8f 93       	push	r24
    1740:	9f 93       	push	r25
    1742:	af 93       	push	r26
    1744:	bf 93       	push	r27
    1746:	ef 93       	push	r30
    1748:	ff 93       	push	r31
    174a:	80 91 ba 02 	lds	r24, 0x02BA	; 0x8002ba <TIM0_OVFCallbackFn>
    174e:	90 91 bb 02 	lds	r25, 0x02BB	; 0x8002bb <TIM0_OVFCallbackFn+0x1>
    1752:	89 2b       	or	r24, r25
    1754:	b1 f0       	breq	.+44     	; 0x1782 <__vector_11+0x5a>
    1756:	80 91 bc 02 	lds	r24, 0x02BC	; 0x8002bc <u8_gs_OVFCount>
    175a:	90 91 bd 02 	lds	r25, 0x02BD	; 0x8002bd <u8_g_TotalOVF>
    175e:	89 13       	cpse	r24, r25
    1760:	0d c0       	rjmp	.+26     	; 0x177c <__vector_11+0x54>
    1762:	0e 94 6a 0b 	call	0x16d4	; 0x16d4 <TIM0_Stop>
    1766:	10 92 bc 02 	sts	0x02BC, r1	; 0x8002bc <u8_gs_OVFCount>
    176a:	89 b7       	in	r24, 0x39	; 57
    176c:	8e 7f       	andi	r24, 0xFE	; 254
    176e:	89 bf       	out	0x39, r24	; 57
    1770:	e0 91 ba 02 	lds	r30, 0x02BA	; 0x8002ba <TIM0_OVFCallbackFn>
    1774:	f0 91 bb 02 	lds	r31, 0x02BB	; 0x8002bb <TIM0_OVFCallbackFn+0x1>
    1778:	09 95       	icall
    177a:	03 c0       	rjmp	.+6      	; 0x1782 <__vector_11+0x5a>
    177c:	8f 5f       	subi	r24, 0xFF	; 255
    177e:	80 93 bc 02 	sts	0x02BC, r24	; 0x8002bc <u8_gs_OVFCount>
    1782:	ff 91       	pop	r31
    1784:	ef 91       	pop	r30
    1786:	bf 91       	pop	r27
    1788:	af 91       	pop	r26
    178a:	9f 91       	pop	r25
    178c:	8f 91       	pop	r24
    178e:	7f 91       	pop	r23
    1790:	6f 91       	pop	r22
    1792:	5f 91       	pop	r21
    1794:	4f 91       	pop	r20
    1796:	3f 91       	pop	r19
    1798:	2f 91       	pop	r18
    179a:	0f 90       	pop	r0
    179c:	0f be       	out	0x3f, r0	; 63
    179e:	0f 90       	pop	r0
    17a0:	1f 90       	pop	r1
    17a2:	18 95       	reti

000017a4 <enuTimer2_init>:
    17a4:	84 30       	cpi	r24, 0x04	; 4
    17a6:	40 f5       	brcc	.+80     	; 0x17f8 <enuTimer2_init+0x54>
    17a8:	81 30       	cpi	r24, 0x01	; 1
    17aa:	71 f0       	breq	.+28     	; 0x17c8 <enuTimer2_init+0x24>
    17ac:	28 f0       	brcs	.+10     	; 0x17b8 <enuTimer2_init+0x14>
    17ae:	82 30       	cpi	r24, 0x02	; 2
    17b0:	99 f0       	breq	.+38     	; 0x17d8 <enuTimer2_init+0x34>
    17b2:	83 30       	cpi	r24, 0x03	; 3
    17b4:	c9 f0       	breq	.+50     	; 0x17e8 <enuTimer2_init+0x44>
    17b6:	22 c0       	rjmp	.+68     	; 0x17fc <enuTimer2_init+0x58>
    17b8:	85 b5       	in	r24, 0x25	; 37
    17ba:	87 7f       	andi	r24, 0xF7	; 247
    17bc:	85 bd       	out	0x25, r24	; 37
    17be:	85 b5       	in	r24, 0x25	; 37
    17c0:	8f 7b       	andi	r24, 0xBF	; 191
    17c2:	85 bd       	out	0x25, r24	; 37
    17c4:	80 e0       	ldi	r24, 0x00	; 0
    17c6:	08 95       	ret
    17c8:	85 b5       	in	r24, 0x25	; 37
    17ca:	87 7f       	andi	r24, 0xF7	; 247
    17cc:	85 bd       	out	0x25, r24	; 37
    17ce:	85 b5       	in	r24, 0x25	; 37
    17d0:	80 64       	ori	r24, 0x40	; 64
    17d2:	85 bd       	out	0x25, r24	; 37
    17d4:	80 e0       	ldi	r24, 0x00	; 0
    17d6:	08 95       	ret
    17d8:	85 b5       	in	r24, 0x25	; 37
    17da:	88 60       	ori	r24, 0x08	; 8
    17dc:	85 bd       	out	0x25, r24	; 37
    17de:	85 b5       	in	r24, 0x25	; 37
    17e0:	8f 7b       	andi	r24, 0xBF	; 191
    17e2:	85 bd       	out	0x25, r24	; 37
    17e4:	80 e0       	ldi	r24, 0x00	; 0
    17e6:	08 95       	ret
    17e8:	85 b5       	in	r24, 0x25	; 37
    17ea:	88 60       	ori	r24, 0x08	; 8
    17ec:	85 bd       	out	0x25, r24	; 37
    17ee:	85 b5       	in	r24, 0x25	; 37
    17f0:	80 64       	ori	r24, 0x40	; 64
    17f2:	85 bd       	out	0x25, r24	; 37
    17f4:	80 e0       	ldi	r24, 0x00	; 0
    17f6:	08 95       	ret
    17f8:	81 e0       	ldi	r24, 0x01	; 1
    17fa:	08 95       	ret
    17fc:	81 e0       	ldi	r24, 0x01	; 1
    17fe:	08 95       	ret

00001800 <u8Timer2_setPrescallar>:
    1800:	88 30       	cpi	r24, 0x08	; 8
    1802:	70 f4       	brcc	.+28     	; 0x1820 <u8Timer2_setPrescallar+0x20>
    1804:	80 93 c5 02 	sts	0x02C5, r24	; 0x8002c5 <global_prescaller>
    1808:	90 91 c4 02 	lds	r25, 0x02C4	; 0x8002c4 <global_timerStatus>
    180c:	91 30       	cpi	r25, 0x01	; 1
    180e:	51 f4       	brne	.+20     	; 0x1824 <u8Timer2_setPrescallar+0x24>
    1810:	95 b5       	in	r25, 0x25	; 37
    1812:	98 7f       	andi	r25, 0xF8	; 248
    1814:	89 2b       	or	r24, r25
    1816:	95 b5       	in	r25, 0x25	; 37
    1818:	89 2b       	or	r24, r25
    181a:	85 bd       	out	0x25, r24	; 37
    181c:	80 e0       	ldi	r24, 0x00	; 0
    181e:	08 95       	ret
    1820:	81 e0       	ldi	r24, 0x01	; 1
    1822:	08 95       	ret
    1824:	80 e0       	ldi	r24, 0x00	; 0
    1826:	08 95       	ret

00001828 <vidTimer2_OvfIrqEnable>:
    1828:	89 b7       	in	r24, 0x39	; 57
    182a:	80 64       	ori	r24, 0x40	; 64
    182c:	89 bf       	out	0x39, r24	; 57
    182e:	8f b7       	in	r24, 0x3f	; 63
    1830:	80 68       	ori	r24, 0x80	; 128
    1832:	8f bf       	out	0x3f, r24	; 63
    1834:	80 e0       	ldi	r24, 0x00	; 0
    1836:	08 95       	ret

00001838 <vidTimer2_start>:
    1838:	95 b5       	in	r25, 0x25	; 37
    183a:	80 91 c5 02 	lds	r24, 0x02C5	; 0x8002c5 <global_prescaller>
    183e:	89 2b       	or	r24, r25
    1840:	85 bd       	out	0x25, r24	; 37
    1842:	81 e0       	ldi	r24, 0x01	; 1
    1844:	80 93 c4 02 	sts	0x02C4, r24	; 0x8002c4 <global_timerStatus>
    1848:	80 e0       	ldi	r24, 0x00	; 0
    184a:	08 95       	ret

0000184c <vidTimer2_stop>:
    184c:	85 b5       	in	r24, 0x25	; 37
    184e:	88 7f       	andi	r24, 0xF8	; 248
    1850:	85 bd       	out	0x25, r24	; 37
    1852:	10 92 c4 02 	sts	0x02C4, r1	; 0x8002c4 <global_timerStatus>
    1856:	80 e0       	ldi	r24, 0x00	; 0
    1858:	08 95       	ret

0000185a <u8Timer2_setTime_ms>:
    185a:	8f 92       	push	r8
    185c:	9f 92       	push	r9
    185e:	af 92       	push	r10
    1860:	bf 92       	push	r11
    1862:	cf 92       	push	r12
    1864:	df 92       	push	r13
    1866:	ef 92       	push	r14
    1868:	ff 92       	push	r15
    186a:	68 38       	cpi	r22, 0x88	; 136
    186c:	23 e1       	ldi	r18, 0x13	; 19
    186e:	72 07       	cpc	r23, r18
    1870:	81 05       	cpc	r24, r1
    1872:	91 05       	cpc	r25, r1
    1874:	08 f0       	brcs	.+2      	; 0x1878 <u8Timer2_setTime_ms+0x1e>
    1876:	60 c0       	rjmp	.+192    	; 0x1938 <u8Timer2_setTime_ms+0xde>
    1878:	6b 01       	movw	r12, r22
    187a:	7c 01       	movw	r14, r24
    187c:	e0 91 c5 02 	lds	r30, 0x02C5	; 0x8002c5 <global_prescaller>
    1880:	f0 e0       	ldi	r31, 0x00	; 0
    1882:	ee 0f       	add	r30, r30
    1884:	ff 1f       	adc	r31, r31
    1886:	e4 57       	subi	r30, 0x74	; 116
    1888:	fd 4f       	sbci	r31, 0xFD	; 253
    188a:	60 81       	ld	r22, Z
    188c:	71 81       	ldd	r23, Z+1	; 0x01
    188e:	80 e0       	ldi	r24, 0x00	; 0
    1890:	90 e0       	ldi	r25, 0x00	; 0
    1892:	0e 94 fb 0d 	call	0x1bf6	; 0x1bf6 <__floatunsisf>
    1896:	20 e0       	ldi	r18, 0x00	; 0
    1898:	30 e0       	ldi	r19, 0x00	; 0
    189a:	4a ef       	ldi	r20, 0xFA	; 250
    189c:	55 e4       	ldi	r21, 0x45	; 69
    189e:	0e 94 5a 0d 	call	0x1ab4	; 0x1ab4 <__divsf3>
    18a2:	4b 01       	movw	r8, r22
    18a4:	5c 01       	movw	r10, r24
    18a6:	c7 01       	movw	r24, r14
    18a8:	b6 01       	movw	r22, r12
    18aa:	0e 94 fb 0d 	call	0x1bf6	; 0x1bf6 <__floatunsisf>
    18ae:	a5 01       	movw	r20, r10
    18b0:	94 01       	movw	r18, r8
    18b2:	0e 94 5a 0d 	call	0x1ab4	; 0x1ab4 <__divsf3>
    18b6:	0e 94 cc 0d 	call	0x1b98	; 0x1b98 <__fixunssfsi>
    18ba:	61 15       	cp	r22, r1
    18bc:	21 e0       	ldi	r18, 0x01	; 1
    18be:	72 07       	cpc	r23, r18
    18c0:	81 05       	cpc	r24, r1
    18c2:	91 05       	cpc	r25, r1
    18c4:	29 f4       	brne	.+10     	; 0x18d0 <u8Timer2_setTime_ms+0x76>
    18c6:	81 e0       	ldi	r24, 0x01	; 1
    18c8:	80 93 c3 02 	sts	0x02C3, r24	; 0x8002c3 <global_ovf>
    18cc:	80 e0       	ldi	r24, 0x00	; 0
    18ce:	39 c0       	rjmp	.+114    	; 0x1942 <u8Timer2_setTime_ms+0xe8>
    18d0:	6f 3f       	cpi	r22, 0xFF	; 255
    18d2:	71 05       	cpc	r23, r1
    18d4:	81 05       	cpc	r24, r1
    18d6:	91 05       	cpc	r25, r1
    18d8:	09 f0       	breq	.+2      	; 0x18dc <u8Timer2_setTime_ms+0x82>
    18da:	78 f4       	brcc	.+30     	; 0x18fa <u8Timer2_setTime_ms+0xa0>
    18dc:	20 e0       	ldi	r18, 0x00	; 0
    18de:	31 e0       	ldi	r19, 0x01	; 1
    18e0:	c9 01       	movw	r24, r18
    18e2:	86 1b       	sub	r24, r22
    18e4:	97 0b       	sbc	r25, r23
    18e6:	90 93 c2 02 	sts	0x02C2, r25	; 0x8002c2 <preload+0x1>
    18ea:	80 93 c1 02 	sts	0x02C1, r24	; 0x8002c1 <preload>
    18ee:	84 bd       	out	0x24, r24	; 36
    18f0:	81 e0       	ldi	r24, 0x01	; 1
    18f2:	80 93 c3 02 	sts	0x02C3, r24	; 0x8002c3 <global_ovf>
    18f6:	80 e0       	ldi	r24, 0x00	; 0
    18f8:	24 c0       	rjmp	.+72     	; 0x1942 <u8Timer2_setTime_ms+0xe8>
    18fa:	61 30       	cpi	r22, 0x01	; 1
    18fc:	21 e0       	ldi	r18, 0x01	; 1
    18fe:	72 07       	cpc	r23, r18
    1900:	81 05       	cpc	r24, r1
    1902:	91 05       	cpc	r25, r1
    1904:	d8 f0       	brcs	.+54     	; 0x193c <u8Timer2_setTime_ms+0xe2>
    1906:	70 93 c3 02 	sts	0x02C3, r23	; 0x8002c3 <global_ovf>
    190a:	77 27       	eor	r23, r23
    190c:	80 e0       	ldi	r24, 0x00	; 0
    190e:	91 e0       	ldi	r25, 0x01	; 1
    1910:	86 1b       	sub	r24, r22
    1912:	97 0b       	sbc	r25, r23
    1914:	90 93 c2 02 	sts	0x02C2, r25	; 0x8002c2 <preload+0x1>
    1918:	80 93 c1 02 	sts	0x02C1, r24	; 0x8002c1 <preload>
    191c:	84 bd       	out	0x24, r24	; 36
    191e:	80 91 c1 02 	lds	r24, 0x02C1	; 0x8002c1 <preload>
    1922:	90 91 c2 02 	lds	r25, 0x02C2	; 0x8002c2 <preload+0x1>
    1926:	89 2b       	or	r24, r25
    1928:	59 f0       	breq	.+22     	; 0x1940 <u8Timer2_setTime_ms+0xe6>
    192a:	80 91 c3 02 	lds	r24, 0x02C3	; 0x8002c3 <global_ovf>
    192e:	8f 5f       	subi	r24, 0xFF	; 255
    1930:	80 93 c3 02 	sts	0x02C3, r24	; 0x8002c3 <global_ovf>
    1934:	80 e0       	ldi	r24, 0x00	; 0
    1936:	05 c0       	rjmp	.+10     	; 0x1942 <u8Timer2_setTime_ms+0xe8>
    1938:	81 e0       	ldi	r24, 0x01	; 1
    193a:	03 c0       	rjmp	.+6      	; 0x1942 <u8Timer2_setTime_ms+0xe8>
    193c:	80 e0       	ldi	r24, 0x00	; 0
    193e:	01 c0       	rjmp	.+2      	; 0x1942 <u8Timer2_setTime_ms+0xe8>
    1940:	80 e0       	ldi	r24, 0x00	; 0
    1942:	ff 90       	pop	r15
    1944:	ef 90       	pop	r14
    1946:	df 90       	pop	r13
    1948:	cf 90       	pop	r12
    194a:	bf 90       	pop	r11
    194c:	af 90       	pop	r10
    194e:	9f 90       	pop	r9
    1950:	8f 90       	pop	r8
    1952:	08 95       	ret

00001954 <vidTimer2_setcbf_OVF>:
    1954:	00 97       	sbiw	r24, 0x00	; 0
    1956:	21 f0       	breq	.+8      	; 0x1960 <vidTimer2_setcbf_OVF+0xc>
    1958:	90 93 c0 02 	sts	0x02C0, r25	; 0x8002c0 <globalCallFunc+0x1>
    195c:	80 93 bf 02 	sts	0x02BF, r24	; 0x8002bf <globalCallFunc>
    1960:	08 95       	ret

00001962 <__vector_5>:
    1962:	1f 92       	push	r1
    1964:	0f 92       	push	r0
    1966:	0f b6       	in	r0, 0x3f	; 63
    1968:	0f 92       	push	r0
    196a:	11 24       	eor	r1, r1
    196c:	2f 93       	push	r18
    196e:	3f 93       	push	r19
    1970:	4f 93       	push	r20
    1972:	5f 93       	push	r21
    1974:	6f 93       	push	r22
    1976:	7f 93       	push	r23
    1978:	8f 93       	push	r24
    197a:	9f 93       	push	r25
    197c:	af 93       	push	r26
    197e:	bf 93       	push	r27
    1980:	ef 93       	push	r30
    1982:	ff 93       	push	r31
    1984:	80 91 be 02 	lds	r24, 0x02BE	; 0x8002be <counter.1731>
    1988:	8f 5f       	subi	r24, 0xFF	; 255
    198a:	80 93 be 02 	sts	0x02BE, r24	; 0x8002be <counter.1731>
    198e:	90 91 c3 02 	lds	r25, 0x02C3	; 0x8002c3 <global_ovf>
    1992:	89 13       	cpse	r24, r25
    1994:	0c c0       	rjmp	.+24     	; 0x19ae <__vector_5+0x4c>
    1996:	e0 91 bf 02 	lds	r30, 0x02BF	; 0x8002bf <globalCallFunc>
    199a:	f0 91 c0 02 	lds	r31, 0x02C0	; 0x8002c0 <globalCallFunc+0x1>
    199e:	30 97       	sbiw	r30, 0x00	; 0
    19a0:	31 f0       	breq	.+12     	; 0x19ae <__vector_5+0x4c>
    19a2:	10 92 be 02 	sts	0x02BE, r1	; 0x8002be <counter.1731>
    19a6:	09 95       	icall
    19a8:	80 91 c1 02 	lds	r24, 0x02C1	; 0x8002c1 <preload>
    19ac:	84 bd       	out	0x24, r24	; 36
    19ae:	ff 91       	pop	r31
    19b0:	ef 91       	pop	r30
    19b2:	bf 91       	pop	r27
    19b4:	af 91       	pop	r26
    19b6:	9f 91       	pop	r25
    19b8:	8f 91       	pop	r24
    19ba:	7f 91       	pop	r23
    19bc:	6f 91       	pop	r22
    19be:	5f 91       	pop	r21
    19c0:	4f 91       	pop	r20
    19c2:	3f 91       	pop	r19
    19c4:	2f 91       	pop	r18
    19c6:	0f 90       	pop	r0
    19c8:	0f be       	out	0x3f, r0	; 63
    19ca:	0f 90       	pop	r0
    19cc:	1f 90       	pop	r1
    19ce:	18 95       	reti

000019d0 <__subsf3>:
    19d0:	50 58       	subi	r21, 0x80	; 128

000019d2 <__addsf3>:
    19d2:	bb 27       	eor	r27, r27
    19d4:	aa 27       	eor	r26, r26
    19d6:	0e 94 00 0d 	call	0x1a00	; 0x1a00 <__addsf3x>
    19da:	0c 94 73 0e 	jmp	0x1ce6	; 0x1ce6 <__fp_round>
    19de:	0e 94 65 0e 	call	0x1cca	; 0x1cca <__fp_pscA>
    19e2:	38 f0       	brcs	.+14     	; 0x19f2 <__addsf3+0x20>
    19e4:	0e 94 6c 0e 	call	0x1cd8	; 0x1cd8 <__fp_pscB>
    19e8:	20 f0       	brcs	.+8      	; 0x19f2 <__addsf3+0x20>
    19ea:	39 f4       	brne	.+14     	; 0x19fa <__addsf3+0x28>
    19ec:	9f 3f       	cpi	r25, 0xFF	; 255
    19ee:	19 f4       	brne	.+6      	; 0x19f6 <__addsf3+0x24>
    19f0:	26 f4       	brtc	.+8      	; 0x19fa <__addsf3+0x28>
    19f2:	0c 94 62 0e 	jmp	0x1cc4	; 0x1cc4 <__fp_nan>
    19f6:	0e f4       	brtc	.+2      	; 0x19fa <__addsf3+0x28>
    19f8:	e0 95       	com	r30
    19fa:	e7 fb       	bst	r30, 7
    19fc:	0c 94 5c 0e 	jmp	0x1cb8	; 0x1cb8 <__fp_inf>

00001a00 <__addsf3x>:
    1a00:	e9 2f       	mov	r30, r25
    1a02:	0e 94 84 0e 	call	0x1d08	; 0x1d08 <__fp_split3>
    1a06:	58 f3       	brcs	.-42     	; 0x19de <__addsf3+0xc>
    1a08:	ba 17       	cp	r27, r26
    1a0a:	62 07       	cpc	r22, r18
    1a0c:	73 07       	cpc	r23, r19
    1a0e:	84 07       	cpc	r24, r20
    1a10:	95 07       	cpc	r25, r21
    1a12:	20 f0       	brcs	.+8      	; 0x1a1c <__addsf3x+0x1c>
    1a14:	79 f4       	brne	.+30     	; 0x1a34 <__addsf3x+0x34>
    1a16:	a6 f5       	brtc	.+104    	; 0x1a80 <__addsf3x+0x80>
    1a18:	0c 94 a6 0e 	jmp	0x1d4c	; 0x1d4c <__fp_zero>
    1a1c:	0e f4       	brtc	.+2      	; 0x1a20 <__addsf3x+0x20>
    1a1e:	e0 95       	com	r30
    1a20:	0b 2e       	mov	r0, r27
    1a22:	ba 2f       	mov	r27, r26
    1a24:	a0 2d       	mov	r26, r0
    1a26:	0b 01       	movw	r0, r22
    1a28:	b9 01       	movw	r22, r18
    1a2a:	90 01       	movw	r18, r0
    1a2c:	0c 01       	movw	r0, r24
    1a2e:	ca 01       	movw	r24, r20
    1a30:	a0 01       	movw	r20, r0
    1a32:	11 24       	eor	r1, r1
    1a34:	ff 27       	eor	r31, r31
    1a36:	59 1b       	sub	r21, r25
    1a38:	99 f0       	breq	.+38     	; 0x1a60 <__addsf3x+0x60>
    1a3a:	59 3f       	cpi	r21, 0xF9	; 249
    1a3c:	50 f4       	brcc	.+20     	; 0x1a52 <__addsf3x+0x52>
    1a3e:	50 3e       	cpi	r21, 0xE0	; 224
    1a40:	68 f1       	brcs	.+90     	; 0x1a9c <__addsf3x+0x9c>
    1a42:	1a 16       	cp	r1, r26
    1a44:	f0 40       	sbci	r31, 0x00	; 0
    1a46:	a2 2f       	mov	r26, r18
    1a48:	23 2f       	mov	r18, r19
    1a4a:	34 2f       	mov	r19, r20
    1a4c:	44 27       	eor	r20, r20
    1a4e:	58 5f       	subi	r21, 0xF8	; 248
    1a50:	f3 cf       	rjmp	.-26     	; 0x1a38 <__addsf3x+0x38>
    1a52:	46 95       	lsr	r20
    1a54:	37 95       	ror	r19
    1a56:	27 95       	ror	r18
    1a58:	a7 95       	ror	r26
    1a5a:	f0 40       	sbci	r31, 0x00	; 0
    1a5c:	53 95       	inc	r21
    1a5e:	c9 f7       	brne	.-14     	; 0x1a52 <__addsf3x+0x52>
    1a60:	7e f4       	brtc	.+30     	; 0x1a80 <__addsf3x+0x80>
    1a62:	1f 16       	cp	r1, r31
    1a64:	ba 0b       	sbc	r27, r26
    1a66:	62 0b       	sbc	r22, r18
    1a68:	73 0b       	sbc	r23, r19
    1a6a:	84 0b       	sbc	r24, r20
    1a6c:	ba f0       	brmi	.+46     	; 0x1a9c <__addsf3x+0x9c>
    1a6e:	91 50       	subi	r25, 0x01	; 1
    1a70:	a1 f0       	breq	.+40     	; 0x1a9a <__addsf3x+0x9a>
    1a72:	ff 0f       	add	r31, r31
    1a74:	bb 1f       	adc	r27, r27
    1a76:	66 1f       	adc	r22, r22
    1a78:	77 1f       	adc	r23, r23
    1a7a:	88 1f       	adc	r24, r24
    1a7c:	c2 f7       	brpl	.-16     	; 0x1a6e <__addsf3x+0x6e>
    1a7e:	0e c0       	rjmp	.+28     	; 0x1a9c <__addsf3x+0x9c>
    1a80:	ba 0f       	add	r27, r26
    1a82:	62 1f       	adc	r22, r18
    1a84:	73 1f       	adc	r23, r19
    1a86:	84 1f       	adc	r24, r20
    1a88:	48 f4       	brcc	.+18     	; 0x1a9c <__addsf3x+0x9c>
    1a8a:	87 95       	ror	r24
    1a8c:	77 95       	ror	r23
    1a8e:	67 95       	ror	r22
    1a90:	b7 95       	ror	r27
    1a92:	f7 95       	ror	r31
    1a94:	9e 3f       	cpi	r25, 0xFE	; 254
    1a96:	08 f0       	brcs	.+2      	; 0x1a9a <__addsf3x+0x9a>
    1a98:	b0 cf       	rjmp	.-160    	; 0x19fa <__addsf3+0x28>
    1a9a:	93 95       	inc	r25
    1a9c:	88 0f       	add	r24, r24
    1a9e:	08 f0       	brcs	.+2      	; 0x1aa2 <__addsf3x+0xa2>
    1aa0:	99 27       	eor	r25, r25
    1aa2:	ee 0f       	add	r30, r30
    1aa4:	97 95       	ror	r25
    1aa6:	87 95       	ror	r24
    1aa8:	08 95       	ret

00001aaa <__cmpsf2>:
    1aaa:	0e 94 38 0e 	call	0x1c70	; 0x1c70 <__fp_cmp>
    1aae:	08 f4       	brcc	.+2      	; 0x1ab2 <__cmpsf2+0x8>
    1ab0:	81 e0       	ldi	r24, 0x01	; 1
    1ab2:	08 95       	ret

00001ab4 <__divsf3>:
    1ab4:	0e 94 6e 0d 	call	0x1adc	; 0x1adc <__divsf3x>
    1ab8:	0c 94 73 0e 	jmp	0x1ce6	; 0x1ce6 <__fp_round>
    1abc:	0e 94 6c 0e 	call	0x1cd8	; 0x1cd8 <__fp_pscB>
    1ac0:	58 f0       	brcs	.+22     	; 0x1ad8 <__divsf3+0x24>
    1ac2:	0e 94 65 0e 	call	0x1cca	; 0x1cca <__fp_pscA>
    1ac6:	40 f0       	brcs	.+16     	; 0x1ad8 <__divsf3+0x24>
    1ac8:	29 f4       	brne	.+10     	; 0x1ad4 <__divsf3+0x20>
    1aca:	5f 3f       	cpi	r21, 0xFF	; 255
    1acc:	29 f0       	breq	.+10     	; 0x1ad8 <__divsf3+0x24>
    1ace:	0c 94 5c 0e 	jmp	0x1cb8	; 0x1cb8 <__fp_inf>
    1ad2:	51 11       	cpse	r21, r1
    1ad4:	0c 94 a7 0e 	jmp	0x1d4e	; 0x1d4e <__fp_szero>
    1ad8:	0c 94 62 0e 	jmp	0x1cc4	; 0x1cc4 <__fp_nan>

00001adc <__divsf3x>:
    1adc:	0e 94 84 0e 	call	0x1d08	; 0x1d08 <__fp_split3>
    1ae0:	68 f3       	brcs	.-38     	; 0x1abc <__divsf3+0x8>

00001ae2 <__divsf3_pse>:
    1ae2:	99 23       	and	r25, r25
    1ae4:	b1 f3       	breq	.-20     	; 0x1ad2 <__divsf3+0x1e>
    1ae6:	55 23       	and	r21, r21
    1ae8:	91 f3       	breq	.-28     	; 0x1ace <__divsf3+0x1a>
    1aea:	95 1b       	sub	r25, r21
    1aec:	55 0b       	sbc	r21, r21
    1aee:	bb 27       	eor	r27, r27
    1af0:	aa 27       	eor	r26, r26
    1af2:	62 17       	cp	r22, r18
    1af4:	73 07       	cpc	r23, r19
    1af6:	84 07       	cpc	r24, r20
    1af8:	38 f0       	brcs	.+14     	; 0x1b08 <__divsf3_pse+0x26>
    1afa:	9f 5f       	subi	r25, 0xFF	; 255
    1afc:	5f 4f       	sbci	r21, 0xFF	; 255
    1afe:	22 0f       	add	r18, r18
    1b00:	33 1f       	adc	r19, r19
    1b02:	44 1f       	adc	r20, r20
    1b04:	aa 1f       	adc	r26, r26
    1b06:	a9 f3       	breq	.-22     	; 0x1af2 <__divsf3_pse+0x10>
    1b08:	35 d0       	rcall	.+106    	; 0x1b74 <__divsf3_pse+0x92>
    1b0a:	0e 2e       	mov	r0, r30
    1b0c:	3a f0       	brmi	.+14     	; 0x1b1c <__divsf3_pse+0x3a>
    1b0e:	e0 e8       	ldi	r30, 0x80	; 128
    1b10:	32 d0       	rcall	.+100    	; 0x1b76 <__divsf3_pse+0x94>
    1b12:	91 50       	subi	r25, 0x01	; 1
    1b14:	50 40       	sbci	r21, 0x00	; 0
    1b16:	e6 95       	lsr	r30
    1b18:	00 1c       	adc	r0, r0
    1b1a:	ca f7       	brpl	.-14     	; 0x1b0e <__divsf3_pse+0x2c>
    1b1c:	2b d0       	rcall	.+86     	; 0x1b74 <__divsf3_pse+0x92>
    1b1e:	fe 2f       	mov	r31, r30
    1b20:	29 d0       	rcall	.+82     	; 0x1b74 <__divsf3_pse+0x92>
    1b22:	66 0f       	add	r22, r22
    1b24:	77 1f       	adc	r23, r23
    1b26:	88 1f       	adc	r24, r24
    1b28:	bb 1f       	adc	r27, r27
    1b2a:	26 17       	cp	r18, r22
    1b2c:	37 07       	cpc	r19, r23
    1b2e:	48 07       	cpc	r20, r24
    1b30:	ab 07       	cpc	r26, r27
    1b32:	b0 e8       	ldi	r27, 0x80	; 128
    1b34:	09 f0       	breq	.+2      	; 0x1b38 <__divsf3_pse+0x56>
    1b36:	bb 0b       	sbc	r27, r27
    1b38:	80 2d       	mov	r24, r0
    1b3a:	bf 01       	movw	r22, r30
    1b3c:	ff 27       	eor	r31, r31
    1b3e:	93 58       	subi	r25, 0x83	; 131
    1b40:	5f 4f       	sbci	r21, 0xFF	; 255
    1b42:	3a f0       	brmi	.+14     	; 0x1b52 <__divsf3_pse+0x70>
    1b44:	9e 3f       	cpi	r25, 0xFE	; 254
    1b46:	51 05       	cpc	r21, r1
    1b48:	78 f0       	brcs	.+30     	; 0x1b68 <__divsf3_pse+0x86>
    1b4a:	0c 94 5c 0e 	jmp	0x1cb8	; 0x1cb8 <__fp_inf>
    1b4e:	0c 94 a7 0e 	jmp	0x1d4e	; 0x1d4e <__fp_szero>
    1b52:	5f 3f       	cpi	r21, 0xFF	; 255
    1b54:	e4 f3       	brlt	.-8      	; 0x1b4e <__divsf3_pse+0x6c>
    1b56:	98 3e       	cpi	r25, 0xE8	; 232
    1b58:	d4 f3       	brlt	.-12     	; 0x1b4e <__divsf3_pse+0x6c>
    1b5a:	86 95       	lsr	r24
    1b5c:	77 95       	ror	r23
    1b5e:	67 95       	ror	r22
    1b60:	b7 95       	ror	r27
    1b62:	f7 95       	ror	r31
    1b64:	9f 5f       	subi	r25, 0xFF	; 255
    1b66:	c9 f7       	brne	.-14     	; 0x1b5a <__divsf3_pse+0x78>
    1b68:	88 0f       	add	r24, r24
    1b6a:	91 1d       	adc	r25, r1
    1b6c:	96 95       	lsr	r25
    1b6e:	87 95       	ror	r24
    1b70:	97 f9       	bld	r25, 7
    1b72:	08 95       	ret
    1b74:	e1 e0       	ldi	r30, 0x01	; 1
    1b76:	66 0f       	add	r22, r22
    1b78:	77 1f       	adc	r23, r23
    1b7a:	88 1f       	adc	r24, r24
    1b7c:	bb 1f       	adc	r27, r27
    1b7e:	62 17       	cp	r22, r18
    1b80:	73 07       	cpc	r23, r19
    1b82:	84 07       	cpc	r24, r20
    1b84:	ba 07       	cpc	r27, r26
    1b86:	20 f0       	brcs	.+8      	; 0x1b90 <__divsf3_pse+0xae>
    1b88:	62 1b       	sub	r22, r18
    1b8a:	73 0b       	sbc	r23, r19
    1b8c:	84 0b       	sbc	r24, r20
    1b8e:	ba 0b       	sbc	r27, r26
    1b90:	ee 1f       	adc	r30, r30
    1b92:	88 f7       	brcc	.-30     	; 0x1b76 <__divsf3_pse+0x94>
    1b94:	e0 95       	com	r30
    1b96:	08 95       	ret

00001b98 <__fixunssfsi>:
    1b98:	0e 94 8c 0e 	call	0x1d18	; 0x1d18 <__fp_splitA>
    1b9c:	88 f0       	brcs	.+34     	; 0x1bc0 <__fixunssfsi+0x28>
    1b9e:	9f 57       	subi	r25, 0x7F	; 127
    1ba0:	98 f0       	brcs	.+38     	; 0x1bc8 <__fixunssfsi+0x30>
    1ba2:	b9 2f       	mov	r27, r25
    1ba4:	99 27       	eor	r25, r25
    1ba6:	b7 51       	subi	r27, 0x17	; 23
    1ba8:	b0 f0       	brcs	.+44     	; 0x1bd6 <__fixunssfsi+0x3e>
    1baa:	e1 f0       	breq	.+56     	; 0x1be4 <__fixunssfsi+0x4c>
    1bac:	66 0f       	add	r22, r22
    1bae:	77 1f       	adc	r23, r23
    1bb0:	88 1f       	adc	r24, r24
    1bb2:	99 1f       	adc	r25, r25
    1bb4:	1a f0       	brmi	.+6      	; 0x1bbc <__fixunssfsi+0x24>
    1bb6:	ba 95       	dec	r27
    1bb8:	c9 f7       	brne	.-14     	; 0x1bac <__fixunssfsi+0x14>
    1bba:	14 c0       	rjmp	.+40     	; 0x1be4 <__fixunssfsi+0x4c>
    1bbc:	b1 30       	cpi	r27, 0x01	; 1
    1bbe:	91 f0       	breq	.+36     	; 0x1be4 <__fixunssfsi+0x4c>
    1bc0:	0e 94 a6 0e 	call	0x1d4c	; 0x1d4c <__fp_zero>
    1bc4:	b1 e0       	ldi	r27, 0x01	; 1
    1bc6:	08 95       	ret
    1bc8:	0c 94 a6 0e 	jmp	0x1d4c	; 0x1d4c <__fp_zero>
    1bcc:	67 2f       	mov	r22, r23
    1bce:	78 2f       	mov	r23, r24
    1bd0:	88 27       	eor	r24, r24
    1bd2:	b8 5f       	subi	r27, 0xF8	; 248
    1bd4:	39 f0       	breq	.+14     	; 0x1be4 <__fixunssfsi+0x4c>
    1bd6:	b9 3f       	cpi	r27, 0xF9	; 249
    1bd8:	cc f3       	brlt	.-14     	; 0x1bcc <__fixunssfsi+0x34>
    1bda:	86 95       	lsr	r24
    1bdc:	77 95       	ror	r23
    1bde:	67 95       	ror	r22
    1be0:	b3 95       	inc	r27
    1be2:	d9 f7       	brne	.-10     	; 0x1bda <__fixunssfsi+0x42>
    1be4:	3e f4       	brtc	.+14     	; 0x1bf4 <__fixunssfsi+0x5c>
    1be6:	90 95       	com	r25
    1be8:	80 95       	com	r24
    1bea:	70 95       	com	r23
    1bec:	61 95       	neg	r22
    1bee:	7f 4f       	sbci	r23, 0xFF	; 255
    1bf0:	8f 4f       	sbci	r24, 0xFF	; 255
    1bf2:	9f 4f       	sbci	r25, 0xFF	; 255
    1bf4:	08 95       	ret

00001bf6 <__floatunsisf>:
    1bf6:	e8 94       	clt
    1bf8:	09 c0       	rjmp	.+18     	; 0x1c0c <__floatsisf+0x12>

00001bfa <__floatsisf>:
    1bfa:	97 fb       	bst	r25, 7
    1bfc:	3e f4       	brtc	.+14     	; 0x1c0c <__floatsisf+0x12>
    1bfe:	90 95       	com	r25
    1c00:	80 95       	com	r24
    1c02:	70 95       	com	r23
    1c04:	61 95       	neg	r22
    1c06:	7f 4f       	sbci	r23, 0xFF	; 255
    1c08:	8f 4f       	sbci	r24, 0xFF	; 255
    1c0a:	9f 4f       	sbci	r25, 0xFF	; 255
    1c0c:	99 23       	and	r25, r25
    1c0e:	a9 f0       	breq	.+42     	; 0x1c3a <__floatsisf+0x40>
    1c10:	f9 2f       	mov	r31, r25
    1c12:	96 e9       	ldi	r25, 0x96	; 150
    1c14:	bb 27       	eor	r27, r27
    1c16:	93 95       	inc	r25
    1c18:	f6 95       	lsr	r31
    1c1a:	87 95       	ror	r24
    1c1c:	77 95       	ror	r23
    1c1e:	67 95       	ror	r22
    1c20:	b7 95       	ror	r27
    1c22:	f1 11       	cpse	r31, r1
    1c24:	f8 cf       	rjmp	.-16     	; 0x1c16 <__floatsisf+0x1c>
    1c26:	fa f4       	brpl	.+62     	; 0x1c66 <__floatsisf+0x6c>
    1c28:	bb 0f       	add	r27, r27
    1c2a:	11 f4       	brne	.+4      	; 0x1c30 <__floatsisf+0x36>
    1c2c:	60 ff       	sbrs	r22, 0
    1c2e:	1b c0       	rjmp	.+54     	; 0x1c66 <__floatsisf+0x6c>
    1c30:	6f 5f       	subi	r22, 0xFF	; 255
    1c32:	7f 4f       	sbci	r23, 0xFF	; 255
    1c34:	8f 4f       	sbci	r24, 0xFF	; 255
    1c36:	9f 4f       	sbci	r25, 0xFF	; 255
    1c38:	16 c0       	rjmp	.+44     	; 0x1c66 <__floatsisf+0x6c>
    1c3a:	88 23       	and	r24, r24
    1c3c:	11 f0       	breq	.+4      	; 0x1c42 <__floatsisf+0x48>
    1c3e:	96 e9       	ldi	r25, 0x96	; 150
    1c40:	11 c0       	rjmp	.+34     	; 0x1c64 <__floatsisf+0x6a>
    1c42:	77 23       	and	r23, r23
    1c44:	21 f0       	breq	.+8      	; 0x1c4e <__floatsisf+0x54>
    1c46:	9e e8       	ldi	r25, 0x8E	; 142
    1c48:	87 2f       	mov	r24, r23
    1c4a:	76 2f       	mov	r23, r22
    1c4c:	05 c0       	rjmp	.+10     	; 0x1c58 <__floatsisf+0x5e>
    1c4e:	66 23       	and	r22, r22
    1c50:	71 f0       	breq	.+28     	; 0x1c6e <__floatsisf+0x74>
    1c52:	96 e8       	ldi	r25, 0x86	; 134
    1c54:	86 2f       	mov	r24, r22
    1c56:	70 e0       	ldi	r23, 0x00	; 0
    1c58:	60 e0       	ldi	r22, 0x00	; 0
    1c5a:	2a f0       	brmi	.+10     	; 0x1c66 <__floatsisf+0x6c>
    1c5c:	9a 95       	dec	r25
    1c5e:	66 0f       	add	r22, r22
    1c60:	77 1f       	adc	r23, r23
    1c62:	88 1f       	adc	r24, r24
    1c64:	da f7       	brpl	.-10     	; 0x1c5c <__floatsisf+0x62>
    1c66:	88 0f       	add	r24, r24
    1c68:	96 95       	lsr	r25
    1c6a:	87 95       	ror	r24
    1c6c:	97 f9       	bld	r25, 7
    1c6e:	08 95       	ret

00001c70 <__fp_cmp>:
    1c70:	99 0f       	add	r25, r25
    1c72:	00 08       	sbc	r0, r0
    1c74:	55 0f       	add	r21, r21
    1c76:	aa 0b       	sbc	r26, r26
    1c78:	e0 e8       	ldi	r30, 0x80	; 128
    1c7a:	fe ef       	ldi	r31, 0xFE	; 254
    1c7c:	16 16       	cp	r1, r22
    1c7e:	17 06       	cpc	r1, r23
    1c80:	e8 07       	cpc	r30, r24
    1c82:	f9 07       	cpc	r31, r25
    1c84:	c0 f0       	brcs	.+48     	; 0x1cb6 <__fp_cmp+0x46>
    1c86:	12 16       	cp	r1, r18
    1c88:	13 06       	cpc	r1, r19
    1c8a:	e4 07       	cpc	r30, r20
    1c8c:	f5 07       	cpc	r31, r21
    1c8e:	98 f0       	brcs	.+38     	; 0x1cb6 <__fp_cmp+0x46>
    1c90:	62 1b       	sub	r22, r18
    1c92:	73 0b       	sbc	r23, r19
    1c94:	84 0b       	sbc	r24, r20
    1c96:	95 0b       	sbc	r25, r21
    1c98:	39 f4       	brne	.+14     	; 0x1ca8 <__fp_cmp+0x38>
    1c9a:	0a 26       	eor	r0, r26
    1c9c:	61 f0       	breq	.+24     	; 0x1cb6 <__fp_cmp+0x46>
    1c9e:	23 2b       	or	r18, r19
    1ca0:	24 2b       	or	r18, r20
    1ca2:	25 2b       	or	r18, r21
    1ca4:	21 f4       	brne	.+8      	; 0x1cae <__fp_cmp+0x3e>
    1ca6:	08 95       	ret
    1ca8:	0a 26       	eor	r0, r26
    1caa:	09 f4       	brne	.+2      	; 0x1cae <__fp_cmp+0x3e>
    1cac:	a1 40       	sbci	r26, 0x01	; 1
    1cae:	a6 95       	lsr	r26
    1cb0:	8f ef       	ldi	r24, 0xFF	; 255
    1cb2:	81 1d       	adc	r24, r1
    1cb4:	81 1d       	adc	r24, r1
    1cb6:	08 95       	ret

00001cb8 <__fp_inf>:
    1cb8:	97 f9       	bld	r25, 7
    1cba:	9f 67       	ori	r25, 0x7F	; 127
    1cbc:	80 e8       	ldi	r24, 0x80	; 128
    1cbe:	70 e0       	ldi	r23, 0x00	; 0
    1cc0:	60 e0       	ldi	r22, 0x00	; 0
    1cc2:	08 95       	ret

00001cc4 <__fp_nan>:
    1cc4:	9f ef       	ldi	r25, 0xFF	; 255
    1cc6:	80 ec       	ldi	r24, 0xC0	; 192
    1cc8:	08 95       	ret

00001cca <__fp_pscA>:
    1cca:	00 24       	eor	r0, r0
    1ccc:	0a 94       	dec	r0
    1cce:	16 16       	cp	r1, r22
    1cd0:	17 06       	cpc	r1, r23
    1cd2:	18 06       	cpc	r1, r24
    1cd4:	09 06       	cpc	r0, r25
    1cd6:	08 95       	ret

00001cd8 <__fp_pscB>:
    1cd8:	00 24       	eor	r0, r0
    1cda:	0a 94       	dec	r0
    1cdc:	12 16       	cp	r1, r18
    1cde:	13 06       	cpc	r1, r19
    1ce0:	14 06       	cpc	r1, r20
    1ce2:	05 06       	cpc	r0, r21
    1ce4:	08 95       	ret

00001ce6 <__fp_round>:
    1ce6:	09 2e       	mov	r0, r25
    1ce8:	03 94       	inc	r0
    1cea:	00 0c       	add	r0, r0
    1cec:	11 f4       	brne	.+4      	; 0x1cf2 <__fp_round+0xc>
    1cee:	88 23       	and	r24, r24
    1cf0:	52 f0       	brmi	.+20     	; 0x1d06 <__fp_round+0x20>
    1cf2:	bb 0f       	add	r27, r27
    1cf4:	40 f4       	brcc	.+16     	; 0x1d06 <__fp_round+0x20>
    1cf6:	bf 2b       	or	r27, r31
    1cf8:	11 f4       	brne	.+4      	; 0x1cfe <__fp_round+0x18>
    1cfa:	60 ff       	sbrs	r22, 0
    1cfc:	04 c0       	rjmp	.+8      	; 0x1d06 <__fp_round+0x20>
    1cfe:	6f 5f       	subi	r22, 0xFF	; 255
    1d00:	7f 4f       	sbci	r23, 0xFF	; 255
    1d02:	8f 4f       	sbci	r24, 0xFF	; 255
    1d04:	9f 4f       	sbci	r25, 0xFF	; 255
    1d06:	08 95       	ret

00001d08 <__fp_split3>:
    1d08:	57 fd       	sbrc	r21, 7
    1d0a:	90 58       	subi	r25, 0x80	; 128
    1d0c:	44 0f       	add	r20, r20
    1d0e:	55 1f       	adc	r21, r21
    1d10:	59 f0       	breq	.+22     	; 0x1d28 <__fp_splitA+0x10>
    1d12:	5f 3f       	cpi	r21, 0xFF	; 255
    1d14:	71 f0       	breq	.+28     	; 0x1d32 <__fp_splitA+0x1a>
    1d16:	47 95       	ror	r20

00001d18 <__fp_splitA>:
    1d18:	88 0f       	add	r24, r24
    1d1a:	97 fb       	bst	r25, 7
    1d1c:	99 1f       	adc	r25, r25
    1d1e:	61 f0       	breq	.+24     	; 0x1d38 <__fp_splitA+0x20>
    1d20:	9f 3f       	cpi	r25, 0xFF	; 255
    1d22:	79 f0       	breq	.+30     	; 0x1d42 <__fp_splitA+0x2a>
    1d24:	87 95       	ror	r24
    1d26:	08 95       	ret
    1d28:	12 16       	cp	r1, r18
    1d2a:	13 06       	cpc	r1, r19
    1d2c:	14 06       	cpc	r1, r20
    1d2e:	55 1f       	adc	r21, r21
    1d30:	f2 cf       	rjmp	.-28     	; 0x1d16 <__fp_split3+0xe>
    1d32:	46 95       	lsr	r20
    1d34:	f1 df       	rcall	.-30     	; 0x1d18 <__fp_splitA>
    1d36:	08 c0       	rjmp	.+16     	; 0x1d48 <__fp_splitA+0x30>
    1d38:	16 16       	cp	r1, r22
    1d3a:	17 06       	cpc	r1, r23
    1d3c:	18 06       	cpc	r1, r24
    1d3e:	99 1f       	adc	r25, r25
    1d40:	f1 cf       	rjmp	.-30     	; 0x1d24 <__fp_splitA+0xc>
    1d42:	86 95       	lsr	r24
    1d44:	71 05       	cpc	r23, r1
    1d46:	61 05       	cpc	r22, r1
    1d48:	08 94       	sec
    1d4a:	08 95       	ret

00001d4c <__fp_zero>:
    1d4c:	e8 94       	clt

00001d4e <__fp_szero>:
    1d4e:	bb 27       	eor	r27, r27
    1d50:	66 27       	eor	r22, r22
    1d52:	77 27       	eor	r23, r23
    1d54:	cb 01       	movw	r24, r22
    1d56:	97 f9       	bld	r25, 7
    1d58:	08 95       	ret

00001d5a <__mulsf3>:
    1d5a:	0e 94 c0 0e 	call	0x1d80	; 0x1d80 <__mulsf3x>
    1d5e:	0c 94 73 0e 	jmp	0x1ce6	; 0x1ce6 <__fp_round>
    1d62:	0e 94 65 0e 	call	0x1cca	; 0x1cca <__fp_pscA>
    1d66:	38 f0       	brcs	.+14     	; 0x1d76 <__mulsf3+0x1c>
    1d68:	0e 94 6c 0e 	call	0x1cd8	; 0x1cd8 <__fp_pscB>
    1d6c:	20 f0       	brcs	.+8      	; 0x1d76 <__mulsf3+0x1c>
    1d6e:	95 23       	and	r25, r21
    1d70:	11 f0       	breq	.+4      	; 0x1d76 <__mulsf3+0x1c>
    1d72:	0c 94 5c 0e 	jmp	0x1cb8	; 0x1cb8 <__fp_inf>
    1d76:	0c 94 62 0e 	jmp	0x1cc4	; 0x1cc4 <__fp_nan>
    1d7a:	11 24       	eor	r1, r1
    1d7c:	0c 94 a7 0e 	jmp	0x1d4e	; 0x1d4e <__fp_szero>

00001d80 <__mulsf3x>:
    1d80:	0e 94 84 0e 	call	0x1d08	; 0x1d08 <__fp_split3>
    1d84:	70 f3       	brcs	.-36     	; 0x1d62 <__mulsf3+0x8>

00001d86 <__mulsf3_pse>:
    1d86:	95 9f       	mul	r25, r21
    1d88:	c1 f3       	breq	.-16     	; 0x1d7a <__mulsf3+0x20>
    1d8a:	95 0f       	add	r25, r21
    1d8c:	50 e0       	ldi	r21, 0x00	; 0
    1d8e:	55 1f       	adc	r21, r21
    1d90:	62 9f       	mul	r22, r18
    1d92:	f0 01       	movw	r30, r0
    1d94:	72 9f       	mul	r23, r18
    1d96:	bb 27       	eor	r27, r27
    1d98:	f0 0d       	add	r31, r0
    1d9a:	b1 1d       	adc	r27, r1
    1d9c:	63 9f       	mul	r22, r19
    1d9e:	aa 27       	eor	r26, r26
    1da0:	f0 0d       	add	r31, r0
    1da2:	b1 1d       	adc	r27, r1
    1da4:	aa 1f       	adc	r26, r26
    1da6:	64 9f       	mul	r22, r20
    1da8:	66 27       	eor	r22, r22
    1daa:	b0 0d       	add	r27, r0
    1dac:	a1 1d       	adc	r26, r1
    1dae:	66 1f       	adc	r22, r22
    1db0:	82 9f       	mul	r24, r18
    1db2:	22 27       	eor	r18, r18
    1db4:	b0 0d       	add	r27, r0
    1db6:	a1 1d       	adc	r26, r1
    1db8:	62 1f       	adc	r22, r18
    1dba:	73 9f       	mul	r23, r19
    1dbc:	b0 0d       	add	r27, r0
    1dbe:	a1 1d       	adc	r26, r1
    1dc0:	62 1f       	adc	r22, r18
    1dc2:	83 9f       	mul	r24, r19
    1dc4:	a0 0d       	add	r26, r0
    1dc6:	61 1d       	adc	r22, r1
    1dc8:	22 1f       	adc	r18, r18
    1dca:	74 9f       	mul	r23, r20
    1dcc:	33 27       	eor	r19, r19
    1dce:	a0 0d       	add	r26, r0
    1dd0:	61 1d       	adc	r22, r1
    1dd2:	23 1f       	adc	r18, r19
    1dd4:	84 9f       	mul	r24, r20
    1dd6:	60 0d       	add	r22, r0
    1dd8:	21 1d       	adc	r18, r1
    1dda:	82 2f       	mov	r24, r18
    1ddc:	76 2f       	mov	r23, r22
    1dde:	6a 2f       	mov	r22, r26
    1de0:	11 24       	eor	r1, r1
    1de2:	9f 57       	subi	r25, 0x7F	; 127
    1de4:	50 40       	sbci	r21, 0x00	; 0
    1de6:	9a f0       	brmi	.+38     	; 0x1e0e <__mulsf3_pse+0x88>
    1de8:	f1 f0       	breq	.+60     	; 0x1e26 <__mulsf3_pse+0xa0>
    1dea:	88 23       	and	r24, r24
    1dec:	4a f0       	brmi	.+18     	; 0x1e00 <__mulsf3_pse+0x7a>
    1dee:	ee 0f       	add	r30, r30
    1df0:	ff 1f       	adc	r31, r31
    1df2:	bb 1f       	adc	r27, r27
    1df4:	66 1f       	adc	r22, r22
    1df6:	77 1f       	adc	r23, r23
    1df8:	88 1f       	adc	r24, r24
    1dfa:	91 50       	subi	r25, 0x01	; 1
    1dfc:	50 40       	sbci	r21, 0x00	; 0
    1dfe:	a9 f7       	brne	.-22     	; 0x1dea <__mulsf3_pse+0x64>
    1e00:	9e 3f       	cpi	r25, 0xFE	; 254
    1e02:	51 05       	cpc	r21, r1
    1e04:	80 f0       	brcs	.+32     	; 0x1e26 <__mulsf3_pse+0xa0>
    1e06:	0c 94 5c 0e 	jmp	0x1cb8	; 0x1cb8 <__fp_inf>
    1e0a:	0c 94 a7 0e 	jmp	0x1d4e	; 0x1d4e <__fp_szero>
    1e0e:	5f 3f       	cpi	r21, 0xFF	; 255
    1e10:	e4 f3       	brlt	.-8      	; 0x1e0a <__mulsf3_pse+0x84>
    1e12:	98 3e       	cpi	r25, 0xE8	; 232
    1e14:	d4 f3       	brlt	.-12     	; 0x1e0a <__mulsf3_pse+0x84>
    1e16:	86 95       	lsr	r24
    1e18:	77 95       	ror	r23
    1e1a:	67 95       	ror	r22
    1e1c:	b7 95       	ror	r27
    1e1e:	f7 95       	ror	r31
    1e20:	e7 95       	ror	r30
    1e22:	9f 5f       	subi	r25, 0xFF	; 255
    1e24:	c1 f7       	brne	.-16     	; 0x1e16 <__mulsf3_pse+0x90>
    1e26:	fe 2b       	or	r31, r30
    1e28:	88 0f       	add	r24, r24
    1e2a:	91 1d       	adc	r25, r1
    1e2c:	96 95       	lsr	r25
    1e2e:	87 95       	ror	r24
    1e30:	97 f9       	bld	r25, 7
    1e32:	08 95       	ret

00001e34 <__mulsi3>:
    1e34:	db 01       	movw	r26, r22
    1e36:	8f 93       	push	r24
    1e38:	9f 93       	push	r25
    1e3a:	0e 94 4c 0f 	call	0x1e98	; 0x1e98 <__muluhisi3>
    1e3e:	bf 91       	pop	r27
    1e40:	af 91       	pop	r26
    1e42:	a2 9f       	mul	r26, r18
    1e44:	80 0d       	add	r24, r0
    1e46:	91 1d       	adc	r25, r1
    1e48:	a3 9f       	mul	r26, r19
    1e4a:	90 0d       	add	r25, r0
    1e4c:	b2 9f       	mul	r27, r18
    1e4e:	90 0d       	add	r25, r0
    1e50:	11 24       	eor	r1, r1
    1e52:	08 95       	ret

00001e54 <__udivmodsi4>:
    1e54:	a1 e2       	ldi	r26, 0x21	; 33
    1e56:	1a 2e       	mov	r1, r26
    1e58:	aa 1b       	sub	r26, r26
    1e5a:	bb 1b       	sub	r27, r27
    1e5c:	fd 01       	movw	r30, r26
    1e5e:	0d c0       	rjmp	.+26     	; 0x1e7a <__udivmodsi4_ep>

00001e60 <__udivmodsi4_loop>:
    1e60:	aa 1f       	adc	r26, r26
    1e62:	bb 1f       	adc	r27, r27
    1e64:	ee 1f       	adc	r30, r30
    1e66:	ff 1f       	adc	r31, r31
    1e68:	a2 17       	cp	r26, r18
    1e6a:	b3 07       	cpc	r27, r19
    1e6c:	e4 07       	cpc	r30, r20
    1e6e:	f5 07       	cpc	r31, r21
    1e70:	20 f0       	brcs	.+8      	; 0x1e7a <__udivmodsi4_ep>
    1e72:	a2 1b       	sub	r26, r18
    1e74:	b3 0b       	sbc	r27, r19
    1e76:	e4 0b       	sbc	r30, r20
    1e78:	f5 0b       	sbc	r31, r21

00001e7a <__udivmodsi4_ep>:
    1e7a:	66 1f       	adc	r22, r22
    1e7c:	77 1f       	adc	r23, r23
    1e7e:	88 1f       	adc	r24, r24
    1e80:	99 1f       	adc	r25, r25
    1e82:	1a 94       	dec	r1
    1e84:	69 f7       	brne	.-38     	; 0x1e60 <__udivmodsi4_loop>
    1e86:	60 95       	com	r22
    1e88:	70 95       	com	r23
    1e8a:	80 95       	com	r24
    1e8c:	90 95       	com	r25
    1e8e:	9b 01       	movw	r18, r22
    1e90:	ac 01       	movw	r20, r24
    1e92:	bd 01       	movw	r22, r26
    1e94:	cf 01       	movw	r24, r30
    1e96:	08 95       	ret

00001e98 <__muluhisi3>:
    1e98:	0e 94 57 0f 	call	0x1eae	; 0x1eae <__umulhisi3>
    1e9c:	a5 9f       	mul	r26, r21
    1e9e:	90 0d       	add	r25, r0
    1ea0:	b4 9f       	mul	r27, r20
    1ea2:	90 0d       	add	r25, r0
    1ea4:	a4 9f       	mul	r26, r20
    1ea6:	80 0d       	add	r24, r0
    1ea8:	91 1d       	adc	r25, r1
    1eaa:	11 24       	eor	r1, r1
    1eac:	08 95       	ret

00001eae <__umulhisi3>:
    1eae:	a2 9f       	mul	r26, r18
    1eb0:	b0 01       	movw	r22, r0
    1eb2:	b3 9f       	mul	r27, r19
    1eb4:	c0 01       	movw	r24, r0
    1eb6:	a3 9f       	mul	r26, r19
    1eb8:	70 0d       	add	r23, r0
    1eba:	81 1d       	adc	r24, r1
    1ebc:	11 24       	eor	r1, r1
    1ebe:	91 1d       	adc	r25, r1
    1ec0:	b2 9f       	mul	r27, r18
    1ec2:	70 0d       	add	r23, r0
    1ec4:	81 1d       	adc	r24, r1
    1ec6:	11 24       	eor	r1, r1
    1ec8:	91 1d       	adc	r25, r1
    1eca:	08 95       	ret

00001ecc <atof>:
    1ecc:	66 27       	eor	r22, r22
    1ece:	77 27       	eor	r23, r23
    1ed0:	0c 94 73 0f 	jmp	0x1ee6	; 0x1ee6 <strtod>

00001ed4 <strcmp>:
    1ed4:	fb 01       	movw	r30, r22
    1ed6:	dc 01       	movw	r26, r24
    1ed8:	8d 91       	ld	r24, X+
    1eda:	01 90       	ld	r0, Z+
    1edc:	80 19       	sub	r24, r0
    1ede:	01 10       	cpse	r0, r1
    1ee0:	d9 f3       	breq	.-10     	; 0x1ed8 <strcmp+0x4>
    1ee2:	99 0b       	sbc	r25, r25
    1ee4:	08 95       	ret

00001ee6 <strtod>:
    1ee6:	a0 e0       	ldi	r26, 0x00	; 0
    1ee8:	b0 e0       	ldi	r27, 0x00	; 0
    1eea:	e9 e7       	ldi	r30, 0x79	; 121
    1eec:	ff e0       	ldi	r31, 0x0F	; 15
    1eee:	0c 94 eb 10 	jmp	0x21d6	; 0x21d6 <__prologue_saves__+0xc>
    1ef2:	ec 01       	movw	r28, r24
    1ef4:	6b 01       	movw	r12, r22
    1ef6:	61 15       	cp	r22, r1
    1ef8:	71 05       	cpc	r23, r1
    1efa:	19 f0       	breq	.+6      	; 0x1f02 <strtod+0x1c>
    1efc:	fb 01       	movw	r30, r22
    1efe:	91 83       	std	Z+1, r25	; 0x01
    1f00:	80 83       	st	Z, r24
    1f02:	7e 01       	movw	r14, r28
    1f04:	ff ef       	ldi	r31, 0xFF	; 255
    1f06:	ef 1a       	sub	r14, r31
    1f08:	ff 0a       	sbc	r15, r31
    1f0a:	08 81       	ld	r16, Y
    1f0c:	80 2f       	mov	r24, r16
    1f0e:	90 e0       	ldi	r25, 0x00	; 0
    1f10:	0e 94 c1 10 	call	0x2182	; 0x2182 <isspace>
    1f14:	89 2b       	or	r24, r25
    1f16:	11 f0       	breq	.+4      	; 0x1f1c <strtod+0x36>
    1f18:	e7 01       	movw	r28, r14
    1f1a:	f3 cf       	rjmp	.-26     	; 0x1f02 <strtod+0x1c>
    1f1c:	0d 32       	cpi	r16, 0x2D	; 45
    1f1e:	39 f4       	brne	.+14     	; 0x1f2e <strtod+0x48>
    1f20:	7e 01       	movw	r14, r28
    1f22:	82 e0       	ldi	r24, 0x02	; 2
    1f24:	e8 0e       	add	r14, r24
    1f26:	f1 1c       	adc	r15, r1
    1f28:	09 81       	ldd	r16, Y+1	; 0x01
    1f2a:	11 e0       	ldi	r17, 0x01	; 1
    1f2c:	08 c0       	rjmp	.+16     	; 0x1f3e <strtod+0x58>
    1f2e:	0b 32       	cpi	r16, 0x2B	; 43
    1f30:	29 f4       	brne	.+10     	; 0x1f3c <strtod+0x56>
    1f32:	7e 01       	movw	r14, r28
    1f34:	92 e0       	ldi	r25, 0x02	; 2
    1f36:	e9 0e       	add	r14, r25
    1f38:	f1 1c       	adc	r15, r1
    1f3a:	09 81       	ldd	r16, Y+1	; 0x01
    1f3c:	10 e0       	ldi	r17, 0x00	; 0
    1f3e:	e7 01       	movw	r28, r14
    1f40:	21 97       	sbiw	r28, 0x01	; 1
    1f42:	43 e0       	ldi	r20, 0x03	; 3
    1f44:	50 e0       	ldi	r21, 0x00	; 0
    1f46:	6c e5       	ldi	r22, 0x5C	; 92
    1f48:	70 e0       	ldi	r23, 0x00	; 0
    1f4a:	ce 01       	movw	r24, r28
    1f4c:	0e 94 ca 10 	call	0x2194	; 0x2194 <strncasecmp_P>
    1f50:	89 2b       	or	r24, r25
    1f52:	c1 f4       	brne	.+48     	; 0x1f84 <strtod+0x9e>
    1f54:	23 96       	adiw	r28, 0x03	; 3
    1f56:	45 e0       	ldi	r20, 0x05	; 5
    1f58:	50 e0       	ldi	r21, 0x00	; 0
    1f5a:	67 e5       	ldi	r22, 0x57	; 87
    1f5c:	70 e0       	ldi	r23, 0x00	; 0
    1f5e:	ce 01       	movw	r24, r28
    1f60:	0e 94 ca 10 	call	0x2194	; 0x2194 <strncasecmp_P>
    1f64:	89 2b       	or	r24, r25
    1f66:	09 f4       	brne	.+2      	; 0x1f6a <strtod+0x84>
    1f68:	25 96       	adiw	r28, 0x05	; 5
    1f6a:	c1 14       	cp	r12, r1
    1f6c:	d1 04       	cpc	r13, r1
    1f6e:	19 f0       	breq	.+6      	; 0x1f76 <strtod+0x90>
    1f70:	f6 01       	movw	r30, r12
    1f72:	d1 83       	std	Z+1, r29	; 0x01
    1f74:	c0 83       	st	Z, r28
    1f76:	11 11       	cpse	r17, r1
    1f78:	f6 c0       	rjmp	.+492    	; 0x2166 <strtod+0x280>
    1f7a:	60 e0       	ldi	r22, 0x00	; 0
    1f7c:	70 e0       	ldi	r23, 0x00	; 0
    1f7e:	80 e8       	ldi	r24, 0x80	; 128
    1f80:	9f e7       	ldi	r25, 0x7F	; 127
    1f82:	fa c0       	rjmp	.+500    	; 0x2178 <strtod+0x292>
    1f84:	43 e0       	ldi	r20, 0x03	; 3
    1f86:	50 e0       	ldi	r21, 0x00	; 0
    1f88:	64 e5       	ldi	r22, 0x54	; 84
    1f8a:	70 e0       	ldi	r23, 0x00	; 0
    1f8c:	ce 01       	movw	r24, r28
    1f8e:	0e 94 ca 10 	call	0x2194	; 0x2194 <strncasecmp_P>
    1f92:	89 2b       	or	r24, r25
    1f94:	59 f4       	brne	.+22     	; 0x1fac <strtod+0xc6>
    1f96:	c1 14       	cp	r12, r1
    1f98:	d1 04       	cpc	r13, r1
    1f9a:	09 f4       	brne	.+2      	; 0x1f9e <strtod+0xb8>
    1f9c:	e9 c0       	rjmp	.+466    	; 0x2170 <strtod+0x28a>
    1f9e:	f2 e0       	ldi	r31, 0x02	; 2
    1fa0:	ef 0e       	add	r14, r31
    1fa2:	f1 1c       	adc	r15, r1
    1fa4:	f6 01       	movw	r30, r12
    1fa6:	f1 82       	std	Z+1, r15	; 0x01
    1fa8:	e0 82       	st	Z, r14
    1faa:	e2 c0       	rjmp	.+452    	; 0x2170 <strtod+0x28a>
    1fac:	20 e0       	ldi	r18, 0x00	; 0
    1fae:	30 e0       	ldi	r19, 0x00	; 0
    1fb0:	a9 01       	movw	r20, r18
    1fb2:	c0 e0       	ldi	r28, 0x00	; 0
    1fb4:	d0 e0       	ldi	r29, 0x00	; 0
    1fb6:	f7 01       	movw	r30, r14
    1fb8:	80 ed       	ldi	r24, 0xD0	; 208
    1fba:	a8 2e       	mov	r10, r24
    1fbc:	a0 0e       	add	r10, r16
    1fbe:	89 e0       	ldi	r24, 0x09	; 9
    1fc0:	8a 15       	cp	r24, r10
    1fc2:	30 f1       	brcs	.+76     	; 0x2010 <strtod+0x12a>
    1fc4:	91 2f       	mov	r25, r17
    1fc6:	92 60       	ori	r25, 0x02	; 2
    1fc8:	b9 2e       	mov	r11, r25
    1fca:	81 2f       	mov	r24, r17
    1fcc:	88 70       	andi	r24, 0x08	; 8
    1fce:	12 ff       	sbrs	r17, 2
    1fd0:	04 c0       	rjmp	.+8      	; 0x1fda <strtod+0xf4>
    1fd2:	81 11       	cpse	r24, r1
    1fd4:	24 c0       	rjmp	.+72     	; 0x201e <strtod+0x138>
    1fd6:	21 96       	adiw	r28, 0x01	; 1
    1fd8:	22 c0       	rjmp	.+68     	; 0x201e <strtod+0x138>
    1fda:	81 11       	cpse	r24, r1
    1fdc:	21 97       	sbiw	r28, 0x01	; 1
    1fde:	a5 e0       	ldi	r26, 0x05	; 5
    1fe0:	b0 e0       	ldi	r27, 0x00	; 0
    1fe2:	0e 94 4c 0f 	call	0x1e98	; 0x1e98 <__muluhisi3>
    1fe6:	dc 01       	movw	r26, r24
    1fe8:	cb 01       	movw	r24, r22
    1fea:	88 0f       	add	r24, r24
    1fec:	99 1f       	adc	r25, r25
    1fee:	aa 1f       	adc	r26, r26
    1ff0:	bb 1f       	adc	r27, r27
    1ff2:	9c 01       	movw	r18, r24
    1ff4:	ad 01       	movw	r20, r26
    1ff6:	2a 0d       	add	r18, r10
    1ff8:	31 1d       	adc	r19, r1
    1ffa:	41 1d       	adc	r20, r1
    1ffc:	51 1d       	adc	r21, r1
    1ffe:	28 39       	cpi	r18, 0x98	; 152
    2000:	89 e9       	ldi	r24, 0x99	; 153
    2002:	38 07       	cpc	r19, r24
    2004:	48 07       	cpc	r20, r24
    2006:	89 e1       	ldi	r24, 0x19	; 25
    2008:	58 07       	cpc	r21, r24
    200a:	48 f0       	brcs	.+18     	; 0x201e <strtod+0x138>
    200c:	16 60       	ori	r17, 0x06	; 6
    200e:	06 c0       	rjmp	.+12     	; 0x201c <strtod+0x136>
    2010:	9e ef       	ldi	r25, 0xFE	; 254
    2012:	a9 12       	cpse	r10, r25
    2014:	0a c0       	rjmp	.+20     	; 0x202a <strtod+0x144>
    2016:	13 fd       	sbrc	r17, 3
    2018:	40 c0       	rjmp	.+128    	; 0x209a <strtod+0x1b4>
    201a:	18 60       	ori	r17, 0x08	; 8
    201c:	b1 2e       	mov	r11, r17
    201e:	8f ef       	ldi	r24, 0xFF	; 255
    2020:	e8 1a       	sub	r14, r24
    2022:	f8 0a       	sbc	r15, r24
    2024:	00 81       	ld	r16, Z
    2026:	1b 2d       	mov	r17, r11
    2028:	c6 cf       	rjmp	.-116    	; 0x1fb6 <strtod+0xd0>
    202a:	80 2f       	mov	r24, r16
    202c:	8f 7d       	andi	r24, 0xDF	; 223
    202e:	85 34       	cpi	r24, 0x45	; 69
    2030:	a1 f5       	brne	.+104    	; 0x209a <strtod+0x1b4>
    2032:	80 81       	ld	r24, Z
    2034:	8d 32       	cpi	r24, 0x2D	; 45
    2036:	11 f4       	brne	.+4      	; 0x203c <strtod+0x156>
    2038:	10 61       	ori	r17, 0x10	; 16
    203a:	06 c0       	rjmp	.+12     	; 0x2048 <strtod+0x162>
    203c:	8b 32       	cpi	r24, 0x2B	; 43
    203e:	21 f0       	breq	.+8      	; 0x2048 <strtod+0x162>
    2040:	31 96       	adiw	r30, 0x01	; 1
    2042:	61 e0       	ldi	r22, 0x01	; 1
    2044:	70 e0       	ldi	r23, 0x00	; 0
    2046:	04 c0       	rjmp	.+8      	; 0x2050 <strtod+0x16a>
    2048:	81 81       	ldd	r24, Z+1	; 0x01
    204a:	32 96       	adiw	r30, 0x02	; 2
    204c:	62 e0       	ldi	r22, 0x02	; 2
    204e:	70 e0       	ldi	r23, 0x00	; 0
    2050:	80 53       	subi	r24, 0x30	; 48
    2052:	8a 30       	cpi	r24, 0x0A	; 10
    2054:	18 f0       	brcs	.+6      	; 0x205c <strtod+0x176>
    2056:	e6 1b       	sub	r30, r22
    2058:	f7 0b       	sbc	r31, r23
    205a:	1f c0       	rjmp	.+62     	; 0x209a <strtod+0x1b4>
    205c:	60 e0       	ldi	r22, 0x00	; 0
    205e:	70 e0       	ldi	r23, 0x00	; 0
    2060:	60 38       	cpi	r22, 0x80	; 128
    2062:	9c e0       	ldi	r25, 0x0C	; 12
    2064:	79 07       	cpc	r23, r25
    2066:	5c f4       	brge	.+22     	; 0x207e <strtod+0x198>
    2068:	db 01       	movw	r26, r22
    206a:	aa 0f       	add	r26, r26
    206c:	bb 1f       	adc	r27, r27
    206e:	aa 0f       	add	r26, r26
    2070:	bb 1f       	adc	r27, r27
    2072:	6a 0f       	add	r22, r26
    2074:	7b 1f       	adc	r23, r27
    2076:	66 0f       	add	r22, r22
    2078:	77 1f       	adc	r23, r23
    207a:	68 0f       	add	r22, r24
    207c:	71 1d       	adc	r23, r1
    207e:	31 96       	adiw	r30, 0x01	; 1
    2080:	df 01       	movw	r26, r30
    2082:	11 97       	sbiw	r26, 0x01	; 1
    2084:	8c 91       	ld	r24, X
    2086:	80 53       	subi	r24, 0x30	; 48
    2088:	8a 30       	cpi	r24, 0x0A	; 10
    208a:	50 f3       	brcs	.-44     	; 0x2060 <strtod+0x17a>
    208c:	14 ff       	sbrs	r17, 4
    208e:	03 c0       	rjmp	.+6      	; 0x2096 <strtod+0x1b0>
    2090:	71 95       	neg	r23
    2092:	61 95       	neg	r22
    2094:	71 09       	sbc	r23, r1
    2096:	c6 0f       	add	r28, r22
    2098:	d7 1f       	adc	r29, r23
    209a:	11 ff       	sbrs	r17, 1
    209c:	08 c0       	rjmp	.+16     	; 0x20ae <strtod+0x1c8>
    209e:	c1 14       	cp	r12, r1
    20a0:	d1 04       	cpc	r13, r1
    20a2:	29 f0       	breq	.+10     	; 0x20ae <strtod+0x1c8>
    20a4:	cf 01       	movw	r24, r30
    20a6:	01 97       	sbiw	r24, 0x01	; 1
    20a8:	f6 01       	movw	r30, r12
    20aa:	91 83       	std	Z+1, r25	; 0x01
    20ac:	80 83       	st	Z, r24
    20ae:	ca 01       	movw	r24, r20
    20b0:	b9 01       	movw	r22, r18
    20b2:	0e 94 fb 0d 	call	0x1bf6	; 0x1bf6 <__floatunsisf>
    20b6:	21 2f       	mov	r18, r17
    20b8:	23 70       	andi	r18, 0x03	; 3
    20ba:	23 30       	cpi	r18, 0x03	; 3
    20bc:	19 f0       	breq	.+6      	; 0x20c4 <strtod+0x1de>
    20be:	4b 01       	movw	r8, r22
    20c0:	5c 01       	movw	r10, r24
    20c2:	06 c0       	rjmp	.+12     	; 0x20d0 <strtod+0x1ea>
    20c4:	4b 01       	movw	r8, r22
    20c6:	5c 01       	movw	r10, r24
    20c8:	b7 fa       	bst	r11, 7
    20ca:	b0 94       	com	r11
    20cc:	b7 f8       	bld	r11, 7
    20ce:	b0 94       	com	r11
    20d0:	20 e0       	ldi	r18, 0x00	; 0
    20d2:	30 e0       	ldi	r19, 0x00	; 0
    20d4:	a9 01       	movw	r20, r18
    20d6:	c5 01       	movw	r24, r10
    20d8:	b4 01       	movw	r22, r8
    20da:	0e 94 55 0d 	call	0x1aaa	; 0x1aaa <__cmpsf2>
    20de:	88 23       	and	r24, r24
    20e0:	09 f4       	brne	.+2      	; 0x20e4 <strtod+0x1fe>
    20e2:	3e c0       	rjmp	.+124    	; 0x2160 <strtod+0x27a>
    20e4:	d7 ff       	sbrs	r29, 7
    20e6:	06 c0       	rjmp	.+12     	; 0x20f4 <strtod+0x20e>
    20e8:	d1 95       	neg	r29
    20ea:	c1 95       	neg	r28
    20ec:	d1 09       	sbc	r29, r1
    20ee:	03 e7       	ldi	r16, 0x73	; 115
    20f0:	10 e0       	ldi	r17, 0x00	; 0
    20f2:	02 c0       	rjmp	.+4      	; 0x20f8 <strtod+0x212>
    20f4:	0b e8       	ldi	r16, 0x8B	; 139
    20f6:	10 e0       	ldi	r17, 0x00	; 0
    20f8:	68 01       	movw	r12, r16
    20fa:	f8 e1       	ldi	r31, 0x18	; 24
    20fc:	cf 1a       	sub	r12, r31
    20fe:	d1 08       	sbc	r13, r1
    2100:	90 e2       	ldi	r25, 0x20	; 32
    2102:	e9 2e       	mov	r14, r25
    2104:	f1 2c       	mov	r15, r1
    2106:	ce 15       	cp	r28, r14
    2108:	df 05       	cpc	r29, r15
    210a:	74 f0       	brlt	.+28     	; 0x2128 <strtod+0x242>
    210c:	f8 01       	movw	r30, r16
    210e:	25 91       	lpm	r18, Z+
    2110:	35 91       	lpm	r19, Z+
    2112:	45 91       	lpm	r20, Z+
    2114:	54 91       	lpm	r21, Z
    2116:	c5 01       	movw	r24, r10
    2118:	b4 01       	movw	r22, r8
    211a:	0e 94 ad 0e 	call	0x1d5a	; 0x1d5a <__mulsf3>
    211e:	4b 01       	movw	r8, r22
    2120:	5c 01       	movw	r10, r24
    2122:	ce 19       	sub	r28, r14
    2124:	df 09       	sbc	r29, r15
    2126:	ef cf       	rjmp	.-34     	; 0x2106 <strtod+0x220>
    2128:	04 50       	subi	r16, 0x04	; 4
    212a:	11 09       	sbc	r17, r1
    212c:	f5 94       	asr	r15
    212e:	e7 94       	ror	r14
    2130:	0c 15       	cp	r16, r12
    2132:	1d 05       	cpc	r17, r13
    2134:	41 f7       	brne	.-48     	; 0x2106 <strtod+0x220>
    2136:	8a 2d       	mov	r24, r10
    2138:	88 0f       	add	r24, r24
    213a:	8b 2d       	mov	r24, r11
    213c:	88 1f       	adc	r24, r24
    213e:	8f 3f       	cpi	r24, 0xFF	; 255
    2140:	49 f0       	breq	.+18     	; 0x2154 <strtod+0x26e>
    2142:	20 e0       	ldi	r18, 0x00	; 0
    2144:	30 e0       	ldi	r19, 0x00	; 0
    2146:	a9 01       	movw	r20, r18
    2148:	c5 01       	movw	r24, r10
    214a:	b4 01       	movw	r22, r8
    214c:	0e 94 55 0d 	call	0x1aaa	; 0x1aaa <__cmpsf2>
    2150:	81 11       	cpse	r24, r1
    2152:	06 c0       	rjmp	.+12     	; 0x2160 <strtod+0x27a>
    2154:	82 e2       	ldi	r24, 0x22	; 34
    2156:	90 e0       	ldi	r25, 0x00	; 0
    2158:	90 93 ec 02 	sts	0x02EC, r25	; 0x8002ec <errno+0x1>
    215c:	80 93 eb 02 	sts	0x02EB, r24	; 0x8002eb <errno>
    2160:	c5 01       	movw	r24, r10
    2162:	b4 01       	movw	r22, r8
    2164:	09 c0       	rjmp	.+18     	; 0x2178 <strtod+0x292>
    2166:	60 e0       	ldi	r22, 0x00	; 0
    2168:	70 e0       	ldi	r23, 0x00	; 0
    216a:	80 e8       	ldi	r24, 0x80	; 128
    216c:	9f ef       	ldi	r25, 0xFF	; 255
    216e:	04 c0       	rjmp	.+8      	; 0x2178 <strtod+0x292>
    2170:	60 e0       	ldi	r22, 0x00	; 0
    2172:	70 e0       	ldi	r23, 0x00	; 0
    2174:	80 ec       	ldi	r24, 0xC0	; 192
    2176:	9f e7       	ldi	r25, 0x7F	; 127
    2178:	cd b7       	in	r28, 0x3d	; 61
    217a:	de b7       	in	r29, 0x3e	; 62
    217c:	ec e0       	ldi	r30, 0x0C	; 12
    217e:	0c 94 07 11 	jmp	0x220e	; 0x220e <__epilogue_restores__+0xc>

00002182 <isspace>:
    2182:	91 11       	cpse	r25, r1
    2184:	0c 94 e2 10 	jmp	0x21c4	; 0x21c4 <__ctype_isfalse>
    2188:	80 32       	cpi	r24, 0x20	; 32
    218a:	19 f0       	breq	.+6      	; 0x2192 <isspace+0x10>
    218c:	89 50       	subi	r24, 0x09	; 9
    218e:	85 50       	subi	r24, 0x05	; 5
    2190:	c8 f7       	brcc	.-14     	; 0x2184 <isspace+0x2>
    2192:	08 95       	ret

00002194 <strncasecmp_P>:
    2194:	fb 01       	movw	r30, r22
    2196:	dc 01       	movw	r26, r24
    2198:	41 50       	subi	r20, 0x01	; 1
    219a:	50 40       	sbci	r21, 0x00	; 0
    219c:	88 f0       	brcs	.+34     	; 0x21c0 <strncasecmp_P+0x2c>
    219e:	8d 91       	ld	r24, X+
    21a0:	81 34       	cpi	r24, 0x41	; 65
    21a2:	1c f0       	brlt	.+6      	; 0x21aa <strncasecmp_P+0x16>
    21a4:	8b 35       	cpi	r24, 0x5B	; 91
    21a6:	0c f4       	brge	.+2      	; 0x21aa <strncasecmp_P+0x16>
    21a8:	80 5e       	subi	r24, 0xE0	; 224
    21aa:	65 91       	lpm	r22, Z+
    21ac:	61 34       	cpi	r22, 0x41	; 65
    21ae:	1c f0       	brlt	.+6      	; 0x21b6 <strncasecmp_P+0x22>
    21b0:	6b 35       	cpi	r22, 0x5B	; 91
    21b2:	0c f4       	brge	.+2      	; 0x21b6 <strncasecmp_P+0x22>
    21b4:	60 5e       	subi	r22, 0xE0	; 224
    21b6:	86 1b       	sub	r24, r22
    21b8:	61 11       	cpse	r22, r1
    21ba:	71 f3       	breq	.-36     	; 0x2198 <strncasecmp_P+0x4>
    21bc:	99 0b       	sbc	r25, r25
    21be:	08 95       	ret
    21c0:	88 1b       	sub	r24, r24
    21c2:	fc cf       	rjmp	.-8      	; 0x21bc <strncasecmp_P+0x28>

000021c4 <__ctype_isfalse>:
    21c4:	99 27       	eor	r25, r25
    21c6:	88 27       	eor	r24, r24

000021c8 <__ctype_istrue>:
    21c8:	08 95       	ret

000021ca <__prologue_saves__>:
    21ca:	2f 92       	push	r2
    21cc:	3f 92       	push	r3
    21ce:	4f 92       	push	r4
    21d0:	5f 92       	push	r5
    21d2:	6f 92       	push	r6
    21d4:	7f 92       	push	r7
    21d6:	8f 92       	push	r8
    21d8:	9f 92       	push	r9
    21da:	af 92       	push	r10
    21dc:	bf 92       	push	r11
    21de:	cf 92       	push	r12
    21e0:	df 92       	push	r13
    21e2:	ef 92       	push	r14
    21e4:	ff 92       	push	r15
    21e6:	0f 93       	push	r16
    21e8:	1f 93       	push	r17
    21ea:	cf 93       	push	r28
    21ec:	df 93       	push	r29
    21ee:	cd b7       	in	r28, 0x3d	; 61
    21f0:	de b7       	in	r29, 0x3e	; 62
    21f2:	ca 1b       	sub	r28, r26
    21f4:	db 0b       	sbc	r29, r27
    21f6:	0f b6       	in	r0, 0x3f	; 63
    21f8:	f8 94       	cli
    21fa:	de bf       	out	0x3e, r29	; 62
    21fc:	0f be       	out	0x3f, r0	; 63
    21fe:	cd bf       	out	0x3d, r28	; 61
    2200:	09 94       	ijmp

00002202 <__epilogue_restores__>:
    2202:	2a 88       	ldd	r2, Y+18	; 0x12
    2204:	39 88       	ldd	r3, Y+17	; 0x11
    2206:	48 88       	ldd	r4, Y+16	; 0x10
    2208:	5f 84       	ldd	r5, Y+15	; 0x0f
    220a:	6e 84       	ldd	r6, Y+14	; 0x0e
    220c:	7d 84       	ldd	r7, Y+13	; 0x0d
    220e:	8c 84       	ldd	r8, Y+12	; 0x0c
    2210:	9b 84       	ldd	r9, Y+11	; 0x0b
    2212:	aa 84       	ldd	r10, Y+10	; 0x0a
    2214:	b9 84       	ldd	r11, Y+9	; 0x09
    2216:	c8 84       	ldd	r12, Y+8	; 0x08
    2218:	df 80       	ldd	r13, Y+7	; 0x07
    221a:	ee 80       	ldd	r14, Y+6	; 0x06
    221c:	fd 80       	ldd	r15, Y+5	; 0x05
    221e:	0c 81       	ldd	r16, Y+4	; 0x04
    2220:	1b 81       	ldd	r17, Y+3	; 0x03
    2222:	aa 81       	ldd	r26, Y+2	; 0x02
    2224:	b9 81       	ldd	r27, Y+1	; 0x01
    2226:	ce 0f       	add	r28, r30
    2228:	d1 1d       	adc	r29, r1
    222a:	0f b6       	in	r0, 0x3f	; 63
    222c:	f8 94       	cli
    222e:	de bf       	out	0x3e, r29	; 62
    2230:	0f be       	out	0x3f, r0	; 63
    2232:	cd bf       	out	0x3d, r28	; 61
    2234:	ed 01       	movw	r28, r26
    2236:	08 95       	ret

00002238 <_exit>:
    2238:	f8 94       	cli

0000223a <__stop_program>:
    223a:	ff cf       	rjmp	.-2      	; 0x223a <__stop_program>
